	.cpu generic+fp+simd
	.file	"hisi-blk-flush.c"
	.text
.Ltext0:
	.cfi_sections	.debug_frame
#APP
	.irp	num,0,1,2,3,4,5,6,7,8,9,10,11,12,13,14,15,16,17,18,19,20,21,22,23,24,25,26,27,28,29,30
	.equ	.L__reg_num_x\num, \num
	.endr
	.equ	.L__reg_num_xzr, 31

	.macro	mrs_s, rt, sreg
	.inst	0xd5200000|(\sreg)|(.L__reg_num_\rt)
	.endm

	.macro	msr_s, sreg, rt
	.inst	0xd5000000|(\sreg)|(.L__reg_num_\rt)
	.endm

#NO_APP
	.align	2
	.global	blk_power_off_flush
	.type	blk_power_off_flush, %function
blk_power_off_flush:
.LFB2799:
	.file 1 "/cloud/jenkins/workspace/950_chipset_0425_component/opensource/component_code/vendor/huawei/extra/build/build_script/kirin_kernel_release/kernel/block/hisi-blk-flush.c"
	.loc 1 35 0
	.cfi_startproc
.LVL0:
	stp	x29, x30, [sp, -64]!
	.cfi_def_cfa_offset 64
	.cfi_offset 29, -64
	.cfi_offset 30, -56
	add	x29, sp, 0
	.cfi_def_cfa_register 29
	stp	x19, x20, [sp,16]
	.cfi_offset 19, -48
	.cfi_offset 20, -40
	.loc 1 37 0
	adrp	x19, .LANCHOR0
	.loc 1 35 0
	str	x23, [sp,48]
	stp	x21, x22, [sp,32]
	.cfi_offset 23, -16
	.cfi_offset 21, -32
	.cfi_offset 22, -24
	.loc 1 37 0
	ldrb	w1, [x19,#:lo12:.LANCHOR0]
	cbz	w1, .L23
.LVL1:
.L1:
	.loc 1 49 0
	ldp	x19, x20, [sp,16]
	.cfi_remember_state
	.cfi_restore 20
	.cfi_restore 19
.LVL2:
	ldp	x21, x22, [sp,32]
	.cfi_restore 22
	.cfi_restore 21
	ldr	x23, [sp,48]
	.cfi_restore 23
	ldp	x29, x30, [sp], 64
	.cfi_restore 30
	.cfi_restore 29
	.cfi_def_cfa 31, 0
	ret
.L23:
	.cfi_restore_state
.LBB54:
.LBB55:
	.loc 1 39 0
	adrp	x22, .LANCHOR1
	mov	w2, w0
	add	x22, x22, :lo12:.LANCHOR1
	adrp	x0, .LC0
.LVL3:
	mov	x1, x22
	add	x0, x0, :lo12:.LC0
	bl	printk
.LVL4:
.LBB56:
	.loc 1 41 0
	adrp	x0, .LANCHOR2
.LBE56:
	.loc 1 40 0
	mov	w1, 1
.LBB57:
	.loc 1 41 0
	add	x21, x0, :lo12:.LANCHOR2
.LBE57:
	.loc 1 40 0
	strb	w1, [x19,#:lo12:.LANCHOR0]
.LBB58:
	.loc 1 41 0
	ldr	x20, [x0,#:lo12:.LANCHOR2]
.LVL5:
.LBE58:
	.loc 1 41 0 is_stmt 0 discriminator 1
	cmp	x21, x20
.LBB59:
	.loc 1 41 0
	sub	x20, x20, #448
.LVL6:
.LBE59:
	.loc 1 41 0 discriminator 1
	beq	.L7
	.loc 1 44 0 is_stmt 1
	adrp	x23, .LC1
	add	x23, x23, :lo12:.LC1
.L16:
	.loc 1 42 0
	cbz	x20, .L4
	.loc 1 42 0 is_stmt 0 discriminator 1
	ldr	x3, [x20,464]
	cbz	x3, .L4
	.loc 1 42 0 discriminator 2
	ldrb	w0, [x20,424]
	cbz	w0, .L4
	.loc 1 43 0 is_stmt 1
	ldr	x2, [x20,576]
	cbnz	x2, .L24
.L5:
	.loc 1 45 0
	mov	x0, x20
	mov	w1, 0
	blr	x3
.LVL7:
.L4:
.LBB60:
	.loc 1 41 0 discriminator 2
	ldr	x20, [x20,448]
.LVL8:
.LBE60:
	.loc 1 41 0 is_stmt 0 discriminator 1
	cmp	x21, x20
.LBB61:
	.loc 1 41 0 discriminator 2
	sub	x20, x20, #448
.LVL9:
.LBE61:
	.loc 1 41 0 discriminator 1
	bne	.L16
.L7:
	.loc 1 48 0 is_stmt 1
	strb	wzr, [x19,#:lo12:.LANCHOR0]
	b	.L1
.L24:
	.loc 1 44 0
	mov	x1, x22
	add	x2, x2, 12
	mov	x0, x23
	bl	printk
.LVL10:
	ldr	x3, [x20,464]
	b	.L5
.LBE55:
.LBE54:
	.cfi_endproc
.LFE2799:
	.size	blk_power_off_flush, .-blk_power_off_flush
	.align	2
	.type	blk_flush_work_fn, %function
blk_flush_work_fn:
.LFB2800:
	.loc 1 53 0
	.cfi_startproc
.LVL11:
	stp	x29, x30, [sp, -32]!
	.cfi_def_cfa_offset 32
	.cfi_offset 29, -32
	.cfi_offset 30, -24
	.loc 1 55 0
	mov	w1, 0
	.loc 1 53 0
	add	x29, sp, 0
	.cfi_def_cfa_register 29
	str	x19, [sp,16]
	.cfi_offset 19, -16
	.loc 1 55 0
	ldr	x0, [x0,104]
.LVL12:
	bl	bdget_disk
.LVL13:
	mov	x19, x0
.LVL14:
	.loc 1 56 0
	cbz	x0, .L25
.LBB67:
	.loc 1 57 0
	mov	w1, 2
	mov	x2, 0
	bl	blkdev_get
.LVL15:
	.loc 1 58 0
	cbnz	w0, .L35
	.loc 1 62 0
	mov	w1, 192
	mov	x0, x19
	movk	w1, 0x240, lsl 16
	mov	x2, 0
	bl	blkdev_issue_flush
.LVL16:
	.loc 1 63 0
	cbnz	w0, .L36
.L28:
	.loc 1 65 0
	mov	x0, x19
	mov	w1, 2
	bl	blkdev_put
.LVL17:
.L25:
.LBE67:
	.loc 1 67 0
	ldr	x19, [sp,16]
	.cfi_remember_state
	.cfi_restore 19
.LVL18:
	ldp	x29, x30, [sp], 32
	.cfi_restore 30
	.cfi_restore 29
	.cfi_def_cfa 31, 0
	ret
.LVL19:
.L35:
	.cfi_restore_state
.LBB68:
.LBB69:
.LBB70:
	.loc 1 59 0
	adrp	x1, .LANCHOR1
	adrp	x0, .LC2
	add	x1, x1, :lo12:.LANCHOR1
	add	x0, x0, :lo12:.LC2
	add	x1, x1, 24
	bl	printk
.LVL20:
	b	.L25
.L36:
.LBE70:
.LBE69:
.LBE68:
.LBB71:
	.loc 1 64 0
	adrp	x1, .LANCHOR1
	adrp	x0, .LC3
	add	x1, x1, :lo12:.LANCHOR1
	add	x0, x0, :lo12:.LC3
	add	x1, x1, 24
	bl	printk
.LVL21:
	b	.L28
.LBE71:
	.cfi_endproc
.LFE2800:
	.size	blk_flush_work_fn, .-blk_flush_work_fn
	.align	2
	.global	blk_flush_reduced_queue_register
	.type	blk_flush_reduced_queue_register, %function
blk_flush_reduced_queue_register:
.LFB2797:
	.loc 1 20 0
	.cfi_startproc
.LVL22:
	stp	x29, x30, [sp, -48]!
	.cfi_def_cfa_offset 48
	.cfi_offset 29, -48
	.cfi_offset 30, -40
	add	x29, sp, 0
	.cfi_def_cfa_register 29
	stp	x19, x20, [sp,16]
	.cfi_offset 19, -32
	.cfi_offset 20, -24
	.loc 1 21 0
	adrp	x19, .LANCHOR2
	add	x20, x19, :lo12:.LANCHOR2
	.loc 1 20 0
	stp	x21, x22, [sp,32]
	.cfi_offset 21, -16
	.cfi_offset 22, -8
	.loc 1 21 0
	add	x22, x20, 16
	.loc 1 20 0
	mov	x21, x0
	.loc 1 21 0
	mov	x0, x22
.LVL23:
	bl	mutex_lock
.LVL24:
.LBB72:
.LBB73:
	.file 2 "/cloud/jenkins/workspace/950_chipset_0425_component/opensource/component_code/vendor/huawei/extra/build/build_script/kirin_kernel_release/kernel/include/linux/list.h"
	.loc 2 63 0
	ldr	x2, [x19,#:lo12:.LANCHOR2]
.LBE73:
.LBE72:
	.loc 1 22 0
	add	x1, x21, 448
	.loc 1 23 0
	mov	x0, x22
.LBB77:
.LBB76:
.LBB74:
.LBB75:
	.loc 2 45 0
	str	x1, [x19,#:lo12:.LANCHOR2]
	.loc 2 42 0
	str	x1, [x2,8]
	.loc 2 43 0
	str	x2, [x21,448]
	.loc 2 44 0
	str	x20, [x21,456]
.LBE75:
.LBE74:
.LBE76:
.LBE77:
	.loc 1 23 0
	bl	mutex_unlock
.LVL25:
	.loc 1 24 0
	ldp	x19, x20, [sp,16]
	.cfi_restore 20
	.cfi_restore 19
	ldp	x21, x22, [sp,32]
	.cfi_restore 22
	.cfi_restore 21
.LVL26:
	ldp	x29, x30, [sp], 48
	.cfi_restore 30
	.cfi_restore 29
	.cfi_def_cfa 31, 0
	ret
	.cfi_endproc
.LFE2797:
	.size	blk_flush_reduced_queue_register, .-blk_flush_reduced_queue_register
	.align	2
	.global	blk_flush_reduced_queue_unregister
	.type	blk_flush_reduced_queue_unregister, %function
blk_flush_reduced_queue_unregister:
.LFB2798:
	.loc 1 27 0
	.cfi_startproc
.LVL27:
	stp	x29, x30, [sp, -32]!
	.cfi_def_cfa_offset 32
	.cfi_offset 29, -32
	.cfi_offset 30, -24
	add	x29, sp, 0
	.cfi_def_cfa_register 29
	stp	x19, x20, [sp,16]
	.cfi_offset 19, -16
	.cfi_offset 20, -8
	.loc 1 28 0
	adrp	x19, .LANCHOR2
	.loc 1 27 0
	mov	x20, x0
	.loc 1 28 0
	add	x19, x19, :lo12:.LANCHOR2
	add	x19, x19, 16
	mov	x0, x19
.LVL28:
	bl	mutex_lock
.LVL29:
.LBB78:
.LBB79:
	.loc 2 107 0
	ldr	x5, [x20,448]
	.loc 2 108 0
	mov	x3, 256
	.loc 2 107 0
	ldr	x4, [x20,456]
	.loc 2 109 0
	mov	x2, 512
	.loc 2 108 0
	movk	x3, 0xdead, lsl 48
.LBE79:
.LBE78:
	.loc 1 30 0
	mov	x0, x19
.LBB88:
.LBB87:
.LBB80:
.LBB81:
	.loc 2 89 0
	str	x4, [x5,8]
.LBE81:
.LBE80:
	.loc 2 109 0
	movk	x2, 0xdead, lsl 48
.LBB86:
.LBB85:
.LBB82:
.LBB83:
.LBB84:
	.file 3 "/cloud/jenkins/workspace/950_chipset_0425_component/opensource/component_code/vendor/huawei/extra/build/build_script/kirin_kernel_release/kernel/include/linux/compiler.h"
	.loc 3 247 0
	str	x5, [x4]
.LBE84:
.LBE83:
.LBE82:
.LBE85:
.LBE86:
	.loc 2 108 0
	str	x3, [x20,448]
	.loc 2 109 0
	str	x2, [x20,456]
.LBE87:
.LBE88:
	.loc 1 30 0
	bl	mutex_unlock
.LVL30:
	.loc 1 31 0
	ldp	x19, x20, [sp,16]
	.cfi_restore 20
	.cfi_restore 19
.LVL31:
	ldp	x29, x30, [sp], 32
	.cfi_restore 30
	.cfi_restore 29
	.cfi_def_cfa 31, 0
	ret
	.cfi_endproc
.LFE2798:
	.size	blk_flush_reduced_queue_unregister, .-blk_flush_reduced_queue_unregister
	.align	2
	.global	flush_sync_dispatch
	.type	flush_sync_dispatch, %function
flush_sync_dispatch:
.LFB2801:
	.loc 1 70 0
	.cfi_startproc
.LVL32:
	stp	x29, x30, [sp, -32]!
	.cfi_def_cfa_offset 32
	.cfi_offset 29, -32
	.cfi_offset 30, -24
	add	x29, sp, 0
	.cfi_def_cfa_register 29
	.loc 1 71 0
	ldr	x2, [x1,24]
	tst	x2, 12288
	bne	.L66
	.loc 1 108 0
	tbz	x2, 0, .L63
	.loc 1 108 0 is_stmt 0 discriminator 1
	ldr	w1, [x1,48]
.LVL33:
	cbz	w1, .L63
.LBB89:
.LBB90:
	.file 4 "/cloud/jenkins/workspace/950_chipset_0425_component/opensource/component_code/vendor/huawei/extra/build/build_script/kirin_kernel_release/kernel/arch/arm64/include/asm/atomic_ll_sc.h"
	.loc 4 90 0 is_stmt 1
	add	x0, x0, 572
.LVL34:
#APP
// 90 "/cloud/jenkins/workspace/950_chipset_0425_component/opensource/component_code/vendor/huawei/extra/build/build_script/kirin_kernel_release/kernel/arch/arm64/include/asm/atomic_ll_sc.h" 1
	// atomic_add
	prfm	pstl1strm, [x0]
1:	ldxr	w1, [x0]
	add	w1, w1, 1
	stxr	w2, w1, [x0]
	cbnz	w2, 1b
// 0 "" 2
.LVL35:
#NO_APP
.L63:
.LBE90:
.LBE89:
	.loc 1 110 0
	mov	w0, 1
.LVL36:
.L61:
	.loc 1 111 0
	ldp	x29, x30, [sp], 32
	.cfi_remember_state
	.cfi_restore 30
	.cfi_restore 29
	.cfi_def_cfa 31, 0
	ret
.LVL37:
.L66:
	.cfi_restore_state
	.loc 1 77 0
	tbnz	x2, 13, .L67
.LBB91:
.LBB92:
.LBB93:
	.loc 3 218 0 discriminator 4
	ldr	w0, [x0,572]
.LVL38:
.LBE93:
.LBE92:
.LBE91:
	.loc 1 87 0 discriminator 5
	cbnz	w0, .L63
	.loc 1 88 0
	ldr	w0, [x1,48]
	cbz	w0, .L62
.LVL39:
.L49:
	.loc 1 89 0
	and	x2, x2, -8193
	str	x2, [x1,24]
	b	.L63
.L67:
	.loc 1 77 0 discriminator 1
	ldr	w3, [x1,48]
	cbz	w3, .L68
.LBB98:
.LBB96:
.LBB94:
	.loc 3 218 0 discriminator 4
	ldr	w3, [x0,572]
.LBE94:
.LBE96:
.LBE98:
	.loc 1 87 0 discriminator 5
	cbz	w3, .L49
.L48:
.LBB99:
.LBB100:
.LBB101:
	.loc 3 246 0
	str	wzr, [x0,572]
.LBE101:
.LBE100:
.LBE99:
	.loc 1 106 0
	mov	w0, 1
.LVL40:
	b	.L61
.LVL41:
.L69:
	.loc 1 78 0 discriminator 1
	ldrb	w1, [x0,440]
	cbz	w1, .L43
	.loc 1 79 0
	add	x2, x0, 472
	str	x2, [x29,24]
	mov	x0, x2
.LVL42:
	bl	cancel_delayed_work
.LVL43:
.LBB102:
.LBB103:
	.file 5 "/cloud/jenkins/workspace/950_chipset_0425_component/opensource/component_code/vendor/huawei/extra/build/build_script/kirin_kernel_release/kernel/include/linux/workqueue.h"
	.loc 5 487 0
	adrp	x1, .LANCHOR0+8
	ldr	x2, [x29,24]
	mov	w0, 8
	mov	x3, 2
	ldr	x1, [x1,#:lo12:.LANCHOR0+8]
	bl	queue_delayed_work_on
.LVL44:
.L62:
.LBE103:
.LBE102:
	.loc 1 84 0
	mov	w0, 0
	b	.L61
.LVL45:
.L68:
	.loc 1 78 0
	ldrb	w1, [x1,32]
.LVL46:
	cmp	w1, 1
	beq	.L69
.L43:
.LBB104:
.LBB97:
.LBB95:
	.loc 3 218 0 discriminator 4
	ldr	w1, [x0,572]
.LBE95:
.LBE97:
.LBE104:
	.loc 1 87 0 discriminator 5
	cbnz	w1, .L48
	.loc 1 84 0
	mov	w0, 0
.LVL47:
	b	.L61
	.cfi_endproc
.LFE2801:
	.size	flush_sync_dispatch, .-flush_sync_dispatch
	.align	2
	.global	blk_queue_async_flush_init
	.type	blk_queue_async_flush_init, %function
blk_queue_async_flush_init:
.LFB2802:
	.loc 1 114 0
	.cfi_startproc
.LVL48:
	stp	x29, x30, [sp, -32]!
	.cfi_def_cfa_offset 32
	.cfi_offset 29, -32
	.cfi_offset 30, -24
	.loc 1 118 0
	add	x4, x0, 480
	mov	x5, 68719476704
	.loc 1 114 0
	add	x29, sp, 0
	.cfi_def_cfa_register 29
	stp	x19, x20, [sp,16]
	.cfi_offset 19, -16
	.cfi_offset 20, -8
	.loc 1 114 0
	mov	x19, x0
	.loc 1 118 0 discriminator 2
	mov	w1, 2097152
	add	x0, x0, 504
.LVL49:
	mov	x2, 0
	mov	x3, 0
	.loc 1 119 0
	adrp	x20, .LANCHOR0
.LBB105:
.LBB106:
	.loc 2 27 0
	str	x4, [x19,480]
.LBE106:
.LBE105:
	.loc 1 119 0
	add	x20, x20, :lo12:.LANCHOR0
	.loc 1 115 0
	strb	wzr, [x19,440]
	.loc 1 116 0
	str	xzr, [x19,464]
.LBB108:
.LBB109:
.LBB110:
	.loc 3 246 0
	str	wzr, [x19,572]
.LBE110:
.LBE109:
.LBE108:
	.loc 1 118 0
	str	x5, [x19,472]
.LBB111:
.LBB107:
	.loc 2 28 0
	str	x4, [x4,8]
.LBE107:
.LBE111:
	.loc 1 118 0
	adrp	x4, blk_flush_work_fn
	add	x4, x4, :lo12:blk_flush_work_fn
	str	x4, [x19,496]
	.loc 1 118 0 is_stmt 0 discriminator 2
	bl	init_timer_key
.LVL50:
	.loc 1 118 0
	adrp	x0, delayed_work_timer_fn
	add	x1, x19, 472
	add	x0, x0, :lo12:delayed_work_timer_fn
	str	x0, [x19,528]
	.loc 1 119 0 is_stmt 1
	ldr	x0, [x20,8]
	.loc 1 118 0
	str	x1, [x19,536]
	.loc 1 119 0
	cbz	x0, .L72
	.loc 1 121 0
	ldp	x19, x20, [sp,16]
	.cfi_remember_state
	.cfi_restore 20
	.cfi_restore 19
.LVL51:
	ldp	x29, x30, [sp], 32
	.cfi_restore 30
	.cfi_restore 29
	.cfi_def_cfa 31, 0
	ret
.LVL52:
.L72:
	.cfi_restore_state
	.loc 1 120 0
	adrp	x0, .LC4
	mov	w1, 2
	mov	w2, 0
	mov	x3, 0
	mov	x4, 0
	add	x0, x0, :lo12:.LC4
	bl	__alloc_workqueue_key
.LVL53:
	str	x0, [x20,8]
	.loc 1 121 0
	ldp	x19, x20, [sp,16]
	.cfi_restore 19
	.cfi_restore 20
.LVL54:
	ldp	x29, x30, [sp], 32
	.cfi_restore 29
	.cfi_restore 30
	.cfi_def_cfa 31, 0
	ret
	.cfi_endproc
.LFE2802:
	.size	blk_queue_async_flush_init, .-blk_queue_async_flush_init
	.global	__ksymtab_blk_power_off_flush
	.section	.rodata
	.align	3
.LANCHOR1 = . + 0
	.type	__func__.35090, %object
	.size	__func__.35090, 20
__func__.35090:
	.string	"blk_power_off_flush"
	.zero	4
	.type	__func__.35113, %object
	.size	__func__.35113, 18
__func__.35113:
	.string	"blk_flush_work_fn"
	.section	___kcrctab_gpl+blk_power_off_flush,"a",%progbits
	.align	3
	.type	__kcrctab_blk_power_off_flush, %object
	.size	__kcrctab_blk_power_off_flush, 8
__kcrctab_blk_power_off_flush:
	.xword	__crc_blk_power_off_flush
	.section	__ksymtab_strings,"a",%progbits
	.type	__kstrtab_blk_power_off_flush, %object
	.size	__kstrtab_blk_power_off_flush, 20
__kstrtab_blk_power_off_flush:
	.string	"blk_power_off_flush"
	.data
	.align	3
.LANCHOR2 = . + 0
	.type	all_flush_q_list, %object
	.size	all_flush_q_list, 16
all_flush_q_list:
	.xword	all_flush_q_list
	.xword	all_flush_q_list
	.type	all_flush_q_mutex, %object
	.size	all_flush_q_mutex, 48
all_flush_q_mutex:
	.word	1
	.hword	0
	.hword	0
	.xword	all_flush_q_mutex+8
	.xword	all_flush_q_mutex+8
	.zero	16
	.xword	0
	.section	.rodata.str1.8,"aMS",%progbits,1
	.align	3
.LC0:
	.string	"\0010<%s> emergency = %d \r\n"
	.zero	7
.LC1:
	.string	"\0010<%s> emergency flush on %s \r\n"
.LC2:
	.string	"\0010<%s> blkdev_get fail! \r\n"
	.zero	5
.LC3:
	.string	"\0010<%s> blkdev_issue_flush fail! \r\n"
	.zero	5
.LC4:
	.string	"async_flush"
	.bss
	.align	3
.LANCHOR0 = . + 0
	.type	blk_power_off_flush_executing, %object
	.size	blk_power_off_flush_executing, 1
blk_power_off_flush_executing:
	.zero	1
	.zero	7
	.type	blk_async_flush_workqueue, %object
	.size	blk_async_flush_workqueue, 8
blk_async_flush_workqueue:
	.zero	8
	.section	___ksymtab_gpl+blk_power_off_flush,"a",%progbits
	.align	3
	.type	__ksymtab_blk_power_off_flush, %object
	.size	__ksymtab_blk_power_off_flush, 16
__ksymtab_blk_power_off_flush:
	.xword	blk_power_off_flush
	.xword	__kstrtab_blk_power_off_flush
	.weak	__crc_blk_power_off_flush
	.text
.Letext0:
	.file 6 "/cloud/jenkins/workspace/950_chipset_0425_component/opensource/component_code/vendor/huawei/extra/build/build_script/kirin_kernel_release/kernel/include/uapi/asm-generic/int-ll64.h"
	.file 7 "/cloud/jenkins/workspace/950_chipset_0425_component/opensource/component_code/vendor/huawei/extra/build/build_script/kirin_kernel_release/kernel/include/asm-generic/int-ll64.h"
	.file 8 "/cloud/jenkins/workspace/950_chipset_0425_component/opensource/component_code/vendor/huawei/extra/build/build_script/kirin_kernel_release/kernel/include/uapi/asm-generic/posix_types.h"
	.file 9 "/cloud/jenkins/workspace/950_chipset_0425_component/opensource/component_code/vendor/huawei/extra/build/build_script/kirin_kernel_release/kernel/include/linux/export.h"
	.file 10 "/cloud/jenkins/workspace/950_chipset_0425_component/opensource/component_code/vendor/huawei/extra/build/build_script/kirin_kernel_release/kernel/include/linux/types.h"
	.file 11 "/cloud/jenkins/workspace/950_chipset_0425_component/opensource/component_code/vendor/huawei/extra/build/build_script/kirin_kernel_release/kernel/include/linux/capability.h"
	.file 12 "/cloud/jenkins/workspace/950_chipset_0425_component/opensource/component_code/vendor/huawei/extra/build/build_script/kirin_kernel_release/kernel/include/asm-generic/bug.h"
	.file 13 "/cloud/jenkins/workspace/950_chipset_0425_component/opensource/component_code/vendor/huawei/extra/build/build_script/kirin_kernel_release/kernel/include/linux/thread_info.h"
	.file 14 "/cloud/jenkins/workspace/950_chipset_0425_component/opensource/component_code/vendor/huawei/extra/build/build_script/kirin_kernel_release/kernel/include/uapi/linux/time.h"
	.file 15 "/cloud/jenkins/workspace/950_chipset_0425_component/opensource/component_code/vendor/huawei/extra/build/build_script/kirin_kernel_release/kernel/arch/arm64/include/asm/compat.h"
	.file 16 "/cloud/jenkins/workspace/950_chipset_0425_component/opensource/component_code/vendor/huawei/extra/build/build_script/kirin_kernel_release/kernel/include/uapi/asm-generic/poll.h"
	.file 17 "/cloud/jenkins/workspace/950_chipset_0425_component/opensource/component_code/vendor/huawei/extra/build/build_script/kirin_kernel_release/kernel/include/linux/sched.h"
	.file 18 "/cloud/jenkins/workspace/950_chipset_0425_component/opensource/component_code/vendor/huawei/extra/build/build_script/kirin_kernel_release/kernel/arch/arm64/include/uapi/asm/ptrace.h"
	.file 19 "/cloud/jenkins/workspace/950_chipset_0425_component/opensource/component_code/vendor/huawei/extra/build/build_script/kirin_kernel_release/kernel/arch/arm64/include/asm/spinlock_types.h"
	.file 20 "/cloud/jenkins/workspace/950_chipset_0425_component/opensource/component_code/vendor/huawei/extra/build/build_script/kirin_kernel_release/kernel/include/linux/spinlock_types.h"
	.file 21 "/cloud/jenkins/workspace/950_chipset_0425_component/opensource/component_code/vendor/huawei/extra/build/build_script/kirin_kernel_release/kernel/include/linux/rwlock_types.h"
	.file 22 "/cloud/jenkins/workspace/950_chipset_0425_component/opensource/component_code/vendor/huawei/extra/build/build_script/kirin_kernel_release/kernel/arch/arm64/include/asm/fpsimd.h"
	.file 23 "/cloud/jenkins/workspace/950_chipset_0425_component/opensource/component_code/vendor/huawei/extra/build/build_script/kirin_kernel_release/kernel/arch/arm64/include/asm/processor.h"
	.file 24 "/cloud/jenkins/workspace/950_chipset_0425_component/opensource/component_code/vendor/huawei/extra/build/build_script/kirin_kernel_release/kernel/include/asm-generic/atomic-long.h"
	.file 25 "/cloud/jenkins/workspace/950_chipset_0425_component/opensource/component_code/vendor/huawei/extra/build/build_script/kirin_kernel_release/kernel/include/linux/seqlock.h"
	.file 26 "/cloud/jenkins/workspace/950_chipset_0425_component/opensource/component_code/vendor/huawei/extra/build/build_script/kirin_kernel_release/kernel/include/linux/plist.h"
	.file 27 "/cloud/jenkins/workspace/950_chipset_0425_component/opensource/component_code/vendor/huawei/extra/build/build_script/kirin_kernel_release/kernel/include/linux/cpumask.h"
	.file 28 "/cloud/jenkins/workspace/950_chipset_0425_component/opensource/component_code/vendor/huawei/extra/build/build_script/kirin_kernel_release/kernel/include/linux/wait.h"
	.file 29 "/cloud/jenkins/workspace/950_chipset_0425_component/opensource/component_code/vendor/huawei/extra/build/build_script/kirin_kernel_release/kernel/include/linux/completion.h"
	.file 30 "/cloud/jenkins/workspace/950_chipset_0425_component/opensource/component_code/vendor/huawei/extra/build/build_script/kirin_kernel_release/kernel/include/linux/ktime.h"
	.file 31 "/cloud/jenkins/workspace/950_chipset_0425_component/opensource/component_code/vendor/huawei/extra/build/build_script/kirin_kernel_release/kernel/include/linux/rbtree.h"
	.file 32 "/cloud/jenkins/workspace/950_chipset_0425_component/opensource/component_code/vendor/huawei/extra/build/build_script/kirin_kernel_release/kernel/include/linux/nodemask.h"
	.file 33 "/cloud/jenkins/workspace/950_chipset_0425_component/opensource/component_code/vendor/huawei/extra/build/build_script/kirin_kernel_release/kernel/include/linux/osq_lock.h"
	.file 34 "/cloud/jenkins/workspace/950_chipset_0425_component/opensource/component_code/vendor/huawei/extra/build/build_script/kirin_kernel_release/kernel/include/linux/rwsem.h"
	.file 35 "/cloud/jenkins/workspace/950_chipset_0425_component/opensource/component_code/vendor/huawei/extra/build/build_script/kirin_kernel_release/kernel/include/linux/mm_types.h"
	.file 36 "/cloud/jenkins/workspace/950_chipset_0425_component/opensource/component_code/vendor/huawei/extra/build/build_script/kirin_kernel_release/kernel/include/linux/lockdep.h"
	.file 37 "/cloud/jenkins/workspace/950_chipset_0425_component/opensource/component_code/vendor/huawei/extra/build/build_script/kirin_kernel_release/kernel/include/linux/uprobes.h"
	.file 38 "/cloud/jenkins/workspace/950_chipset_0425_component/opensource/component_code/vendor/huawei/extra/build/build_script/kirin_kernel_release/kernel/include/linux/timer.h"
	.file 39 "/cloud/jenkins/workspace/950_chipset_0425_component/opensource/component_code/vendor/huawei/extra/build/build_script/kirin_kernel_release/kernel/include/linux/stddef.h"
	.file 40 "/cloud/jenkins/workspace/950_chipset_0425_component/opensource/component_code/vendor/huawei/extra/build/build_script/kirin_kernel_release/kernel/arch/arm64/include/asm/pgtable-types.h"
	.file 41 "/cloud/jenkins/workspace/950_chipset_0425_component/opensource/component_code/vendor/huawei/extra/build/build_script/kirin_kernel_release/kernel/arch/arm64/include/asm/mmu.h"
	.file 42 "/cloud/jenkins/workspace/950_chipset_0425_component/opensource/component_code/vendor/huawei/extra/build/build_script/kirin_kernel_release/kernel/include/linux/fs.h"
	.file 43 "/cloud/jenkins/workspace/950_chipset_0425_component/opensource/component_code/vendor/huawei/extra/build/build_script/kirin_kernel_release/kernel/include/linux/mm.h"
	.file 44 "/cloud/jenkins/workspace/950_chipset_0425_component/opensource/component_code/vendor/huawei/extra/build/build_script/kirin_kernel_release/kernel/include/asm-generic/cputime_jiffies.h"
	.file 45 "/cloud/jenkins/workspace/950_chipset_0425_component/opensource/component_code/vendor/huawei/extra/build/build_script/kirin_kernel_release/kernel/include/linux/llist.h"
	.file 46 "/cloud/jenkins/workspace/950_chipset_0425_component/opensource/component_code/vendor/huawei/extra/build/build_script/kirin_kernel_release/kernel/include/linux/smp.h"
	.file 47 "/cloud/jenkins/workspace/950_chipset_0425_component/opensource/component_code/vendor/huawei/extra/build/build_script/kirin_kernel_release/kernel/arch/arm64/include/asm/smp.h"
	.file 48 "/cloud/jenkins/workspace/950_chipset_0425_component/opensource/component_code/vendor/huawei/extra/build/build_script/kirin_kernel_release/kernel/include/linux/uidgid.h"
	.file 49 "/cloud/jenkins/workspace/950_chipset_0425_component/opensource/component_code/vendor/huawei/extra/build/build_script/kirin_kernel_release/kernel/include/uapi/asm-generic/signal.h"
	.file 50 "/cloud/jenkins/workspace/950_chipset_0425_component/opensource/component_code/vendor/huawei/extra/build/build_script/kirin_kernel_release/kernel/include/uapi/asm-generic/signal-defs.h"
	.file 51 "/cloud/jenkins/workspace/950_chipset_0425_component/opensource/component_code/vendor/huawei/extra/build/build_script/kirin_kernel_release/kernel/include/uapi/asm-generic/siginfo.h"
	.file 52 "/cloud/jenkins/workspace/950_chipset_0425_component/opensource/component_code/vendor/huawei/extra/build/build_script/kirin_kernel_release/kernel/include/linux/signal.h"
	.file 53 "/cloud/jenkins/workspace/950_chipset_0425_component/opensource/component_code/vendor/huawei/extra/build/build_script/kirin_kernel_release/kernel/include/linux/pid.h"
	.file 54 "/cloud/jenkins/workspace/950_chipset_0425_component/opensource/component_code/vendor/huawei/extra/build/build_script/kirin_kernel_release/kernel/include/linux/mmzone.h"
	.file 55 "/cloud/jenkins/workspace/950_chipset_0425_component/opensource/component_code/vendor/huawei/extra/build/build_script/kirin_kernel_release/kernel/include/linux/mutex.h"
	.file 56 "/cloud/jenkins/workspace/950_chipset_0425_component/opensource/component_code/vendor/huawei/extra/build/build_script/kirin_kernel_release/kernel/include/linux/notifier.h"
	.file 57 "/cloud/jenkins/workspace/950_chipset_0425_component/opensource/component_code/vendor/huawei/extra/build/build_script/kirin_kernel_release/kernel/include/linux/percpu_counter.h"
	.file 58 "/cloud/jenkins/workspace/950_chipset_0425_component/opensource/component_code/vendor/huawei/extra/build/build_script/kirin_kernel_release/kernel/include/linux/seccomp.h"
	.file 59 "/cloud/jenkins/workspace/950_chipset_0425_component/opensource/component_code/vendor/huawei/extra/build/build_script/kirin_kernel_release/kernel/include/uapi/linux/resource.h"
	.file 60 "/cloud/jenkins/workspace/950_chipset_0425_component/opensource/component_code/vendor/huawei/extra/build/build_script/kirin_kernel_release/kernel/include/linux/timerqueue.h"
	.file 61 "/cloud/jenkins/workspace/950_chipset_0425_component/opensource/component_code/vendor/huawei/extra/build/build_script/kirin_kernel_release/kernel/include/linux/hrtimer.h"
	.file 62 "/cloud/jenkins/workspace/950_chipset_0425_component/opensource/component_code/vendor/huawei/extra/build/build_script/kirin_kernel_release/kernel/include/linux/task_io_accounting.h"
	.file 63 "/cloud/jenkins/workspace/950_chipset_0425_component/opensource/component_code/vendor/huawei/extra/build/build_script/kirin_kernel_release/kernel/include/linux/assoc_array.h"
	.file 64 "/cloud/jenkins/workspace/950_chipset_0425_component/opensource/component_code/vendor/huawei/extra/build/build_script/kirin_kernel_release/kernel/include/linux/key.h"
	.file 65 "/cloud/jenkins/workspace/950_chipset_0425_component/opensource/component_code/vendor/huawei/extra/build/build_script/kirin_kernel_release/kernel/include/linux/cred.h"
	.file 66 "/cloud/jenkins/workspace/950_chipset_0425_component/opensource/component_code/vendor/huawei/extra/build/build_script/kirin_kernel_release/kernel/include/linux/idr.h"
	.file 67 "/cloud/jenkins/workspace/950_chipset_0425_component/opensource/component_code/vendor/huawei/extra/build/build_script/kirin_kernel_release/kernel/include/linux/percpu-refcount.h"
	.file 68 "/cloud/jenkins/workspace/950_chipset_0425_component/opensource/component_code/vendor/huawei/extra/build/build_script/kirin_kernel_release/kernel/include/linux/rcu_sync.h"
	.file 69 "/cloud/jenkins/workspace/950_chipset_0425_component/opensource/component_code/vendor/huawei/extra/build/build_script/kirin_kernel_release/kernel/include/linux/percpu-rwsem.h"
	.file 70 "/cloud/jenkins/workspace/950_chipset_0425_component/opensource/component_code/vendor/huawei/extra/build/build_script/kirin_kernel_release/kernel/include/linux/cgroup-defs.h"
	.file 71 "/cloud/jenkins/workspace/950_chipset_0425_component/opensource/component_code/vendor/huawei/extra/build/build_script/kirin_kernel_release/kernel/include/linux/kernfs.h"
	.file 72 "/cloud/jenkins/workspace/950_chipset_0425_component/opensource/component_code/vendor/huawei/extra/build/build_script/kirin_kernel_release/kernel/include/linux/seq_file.h"
	.file 73 "/cloud/jenkins/workspace/950_chipset_0425_component/opensource/component_code/vendor/huawei/extra/build/build_script/kirin_kernel_release/kernel/include/linux/bio.h"
	.file 74 "/cloud/jenkins/workspace/950_chipset_0425_component/opensource/component_code/vendor/huawei/extra/build/build_script/kirin_kernel_release/kernel/include/linux/blkdev.h"
	.file 75 "/cloud/jenkins/workspace/950_chipset_0425_component/opensource/component_code/vendor/huawei/extra/build/build_script/kirin_kernel_release/kernel/include/linux/backing-dev-defs.h"
	.file 76 "/cloud/jenkins/workspace/950_chipset_0425_component/opensource/component_code/vendor/huawei/extra/build/build_script/kirin_kernel_release/kernel/include/linux/iocontext.h"
	.file 77 "/cloud/jenkins/workspace/950_chipset_0425_component/opensource/component_code/vendor/huawei/extra/build/build_script/kirin_kernel_release/kernel/include/linux/compat.h"
	.file 78 "/cloud/jenkins/workspace/950_chipset_0425_component/opensource/component_code/vendor/huawei/extra/build/build_script/kirin_kernel_release/kernel/include/linux/stat.h"
	.file 79 "/cloud/jenkins/workspace/950_chipset_0425_component/opensource/component_code/vendor/huawei/extra/build/build_script/kirin_kernel_release/kernel/include/uapi/linux/elf.h"
	.file 80 "/cloud/jenkins/workspace/950_chipset_0425_component/opensource/component_code/vendor/huawei/extra/build/build_script/kirin_kernel_release/kernel/include/linux/kobject_ns.h"
	.file 81 "/cloud/jenkins/workspace/950_chipset_0425_component/opensource/component_code/vendor/huawei/extra/build/build_script/kirin_kernel_release/kernel/include/linux/sysfs.h"
	.file 82 "/cloud/jenkins/workspace/950_chipset_0425_component/opensource/component_code/vendor/huawei/extra/build/build_script/kirin_kernel_release/kernel/include/linux/kobject.h"
	.file 83 "/cloud/jenkins/workspace/950_chipset_0425_component/opensource/component_code/vendor/huawei/extra/build/build_script/kirin_kernel_release/kernel/include/linux/kref.h"
	.file 84 "/cloud/jenkins/workspace/950_chipset_0425_component/opensource/component_code/vendor/huawei/extra/build/build_script/kirin_kernel_release/kernel/include/linux/moduleparam.h"
	.file 85 "/cloud/jenkins/workspace/950_chipset_0425_component/opensource/component_code/vendor/huawei/extra/build/build_script/kirin_kernel_release/kernel/include/linux/module.h"
	.file 86 "/cloud/jenkins/workspace/950_chipset_0425_component/opensource/component_code/vendor/huawei/extra/build/build_script/kirin_kernel_release/kernel/include/linux/jump_label.h"
	.file 87 "/cloud/jenkins/workspace/950_chipset_0425_component/opensource/component_code/vendor/huawei/extra/build/build_script/kirin_kernel_release/kernel/include/linux/rbtree_latch.h"
	.file 88 "/cloud/jenkins/workspace/950_chipset_0425_component/opensource/component_code/vendor/huawei/extra/build/build_script/kirin_kernel_release/kernel/arch/arm64/include/asm/module.h"
	.file 89 "/cloud/jenkins/workspace/950_chipset_0425_component/opensource/component_code/vendor/huawei/extra/build/build_script/kirin_kernel_release/kernel/arch/arm64/include/asm/uaccess.h"
	.file 90 "/cloud/jenkins/workspace/950_chipset_0425_component/opensource/component_code/vendor/huawei/extra/build/build_script/kirin_kernel_release/kernel/include/linux/tracepoint.h"
	.file 91 "/cloud/jenkins/workspace/950_chipset_0425_component/opensource/component_code/vendor/huawei/extra/build/build_script/kirin_kernel_release/kernel/include/linux/list_bl.h"
	.file 92 "/cloud/jenkins/workspace/950_chipset_0425_component/opensource/component_code/vendor/huawei/extra/build/build_script/kirin_kernel_release/kernel/include/linux/lockref.h"
	.file 93 "/cloud/jenkins/workspace/950_chipset_0425_component/opensource/component_code/vendor/huawei/extra/build/build_script/kirin_kernel_release/kernel/include/linux/dcache.h"
	.file 94 "/cloud/jenkins/workspace/950_chipset_0425_component/opensource/component_code/vendor/huawei/extra/build/build_script/kirin_kernel_release/kernel/include/linux/path.h"
	.file 95 "/cloud/jenkins/workspace/950_chipset_0425_component/opensource/component_code/vendor/huawei/extra/build/build_script/kirin_kernel_release/kernel/include/linux/shrinker.h"
	.file 96 "/cloud/jenkins/workspace/950_chipset_0425_component/opensource/component_code/vendor/huawei/extra/build/build_script/kirin_kernel_release/kernel/include/linux/list_lru.h"
	.file 97 "/cloud/jenkins/workspace/950_chipset_0425_component/opensource/component_code/vendor/huawei/extra/build/build_script/kirin_kernel_release/kernel/include/linux/radix-tree.h"
	.file 98 "/cloud/jenkins/workspace/950_chipset_0425_component/opensource/component_code/vendor/huawei/extra/build/build_script/kirin_kernel_release/kernel/include/uapi/linux/fiemap.h"
	.file 99 "/cloud/jenkins/workspace/950_chipset_0425_component/opensource/component_code/vendor/huawei/extra/build/build_script/kirin_kernel_release/kernel/include/linux/migrate_mode.h"
	.file 100 "/cloud/jenkins/workspace/950_chipset_0425_component/opensource/component_code/vendor/huawei/extra/build/build_script/kirin_kernel_release/kernel/include/linux/blk_types.h"
	.file 101 "/cloud/jenkins/workspace/950_chipset_0425_component/opensource/component_code/vendor/huawei/extra/build/build_script/kirin_kernel_release/kernel/include/linux/quota.h"
	.file 102 "/cloud/jenkins/workspace/950_chipset_0425_component/opensource/component_code/vendor/huawei/extra/build/build_script/kirin_kernel_release/kernel/include/linux/projid.h"
	.file 103 "/cloud/jenkins/workspace/950_chipset_0425_component/opensource/component_code/vendor/huawei/extra/build/build_script/kirin_kernel_release/kernel/include/linux/uio.h"
	.file 104 "/cloud/jenkins/workspace/950_chipset_0425_component/opensource/component_code/vendor/huawei/extra/build/build_script/kirin_kernel_release/kernel/include/linux/genhd.h"
	.file 105 "/cloud/jenkins/workspace/950_chipset_0425_component/opensource/component_code/vendor/huawei/extra/build/build_script/kirin_kernel_release/kernel/include/linux/nfs_fs_i.h"
	.file 106 "/cloud/jenkins/workspace/950_chipset_0425_component/opensource/component_code/vendor/huawei/extra/build/build_script/kirin_kernel_release/kernel/include/linux/poll.h"
	.file 107 "/cloud/jenkins/workspace/950_chipset_0425_component/opensource/component_code/vendor/huawei/extra/build/build_script/kirin_kernel_release/kernel/include/linux/vmstat.h"
	.file 108 "/cloud/jenkins/workspace/950_chipset_0425_component/opensource/component_code/vendor/huawei/extra/build/build_script/kirin_kernel_release/kernel/include/linux/mempool.h"
	.file 109 "/cloud/jenkins/workspace/950_chipset_0425_component/opensource/component_code/vendor/huawei/extra/build/build_script/kirin_kernel_release/kernel/include/linux/klist.h"
	.file 110 "/cloud/jenkins/workspace/950_chipset_0425_component/opensource/component_code/vendor/huawei/extra/build/build_script/kirin_kernel_release/kernel/include/linux/pinctrl/devinfo.h"
	.file 111 "/cloud/jenkins/workspace/950_chipset_0425_component/opensource/component_code/vendor/huawei/extra/build/build_script/kirin_kernel_release/kernel/include/linux/pm.h"
	.file 112 "/cloud/jenkins/workspace/950_chipset_0425_component/opensource/component_code/vendor/huawei/extra/build/build_script/kirin_kernel_release/kernel/include/linux/device.h"
	.file 113 "/cloud/jenkins/workspace/950_chipset_0425_component/opensource/component_code/vendor/huawei/extra/build/build_script/kirin_kernel_release/kernel/include/linux/pm_wakeup.h"
	.file 114 "/cloud/jenkins/workspace/950_chipset_0425_component/opensource/component_code/vendor/huawei/extra/build/build_script/kirin_kernel_release/kernel/arch/arm64/include/asm/device.h"
	.file 115 "/cloud/jenkins/workspace/950_chipset_0425_component/opensource/component_code/vendor/huawei/extra/build/build_script/kirin_kernel_release/kernel/include/linux/dma-mapping.h"
	.file 116 "/cloud/jenkins/workspace/950_chipset_0425_component/opensource/component_code/vendor/huawei/extra/build/build_script/kirin_kernel_release/kernel/include/linux/flex_proportions.h"
	.file 117 "/cloud/jenkins/workspace/950_chipset_0425_component/opensource/component_code/vendor/huawei/extra/build/build_script/kirin_kernel_release/kernel/include/linux/bsg.h"
	.file 118 "/cloud/jenkins/workspace/950_chipset_0425_component/opensource/component_code/vendor/huawei/extra/build/build_script/kirin_kernel_release/kernel/include/linux/wbt.h"
	.file 119 "/cloud/jenkins/workspace/950_chipset_0425_component/opensource/component_code/vendor/huawei/extra/build/build_script/kirin_kernel_release/kernel/include/linux/scatterlist.h"
	.file 120 "/cloud/jenkins/workspace/950_chipset_0425_component/opensource/component_code/vendor/huawei/extra/build/build_script/kirin_kernel_release/kernel/block/blk-mq.h"
	.file 121 "/cloud/jenkins/workspace/950_chipset_0425_component/opensource/component_code/vendor/huawei/extra/build/build_script/kirin_kernel_release/kernel/include/linux/elevator.h"
	.file 122 "/cloud/jenkins/workspace/950_chipset_0425_component/opensource/component_code/vendor/huawei/extra/build/build_script/kirin_kernel_release/kernel/include/linux/blk-mq.h"
	.file 123 "/cloud/jenkins/workspace/950_chipset_0425_component/opensource/component_code/vendor/huawei/extra/build/build_script/kirin_kernel_release/kernel/block/blk.h"
	.file 124 "/cloud/jenkins/workspace/950_chipset_0425_component/opensource/component_code/vendor/huawei/extra/build/build_script/kirin_kernel_release/kernel/include/uapi/linux/uio.h"
	.file 125 "/cloud/jenkins/workspace/950_chipset_0425_component/opensource/component_code/vendor/huawei/extra/build/build_script/kirin_kernel_release/kernel/include/linux/dma-attrs.h"
	.file 126 "/cloud/jenkins/workspace/950_chipset_0425_component/opensource/component_code/vendor/huawei/extra/build/build_script/kirin_kernel_release/kernel/include/linux/dma-direction.h"
	.file 127 "/cloud/jenkins/workspace/950_chipset_0425_component/opensource/component_code/vendor/huawei/extra/build/build_script/kirin_kernel_release/kernel/include/scsi/scsi_device.h"
	.file 128 "/cloud/jenkins/workspace/950_chipset_0425_component/opensource/component_code/vendor/huawei/extra/build/build_script/kirin_kernel_release/kernel/include/linux/jiffies.h"
	.file 129 "/cloud/jenkins/workspace/950_chipset_0425_component/opensource/component_code/vendor/huawei/extra/build/build_script/kirin_kernel_release/kernel/arch/arm64/include/asm/cachetype.h"
	.file 130 "/cloud/jenkins/workspace/950_chipset_0425_component/opensource/component_code/vendor/huawei/extra/build/build_script/kirin_kernel_release/kernel/include/linux/printk.h"
	.file 131 "/cloud/jenkins/workspace/950_chipset_0425_component/opensource/component_code/vendor/huawei/extra/build/build_script/kirin_kernel_release/kernel/include/linux/kernel.h"
	.file 132 "/cloud/jenkins/workspace/950_chipset_0425_component/opensource/component_code/vendor/huawei/extra/build/build_script/kirin_kernel_release/kernel/arch/arm64/include/asm/thread_info.h"
	.file 133 "/cloud/jenkins/workspace/950_chipset_0425_component/opensource/component_code/vendor/huawei/extra/build/build_script/kirin_kernel_release/kernel/arch/arm64/include/asm/hwcap.h"
	.file 134 "/cloud/jenkins/workspace/950_chipset_0425_component/opensource/component_code/vendor/huawei/extra/build/build_script/kirin_kernel_release/kernel/arch/arm64/include/asm/cpufeature.h"
	.file 135 "/cloud/jenkins/workspace/950_chipset_0425_component/opensource/component_code/vendor/huawei/extra/build/build_script/kirin_kernel_release/kernel/arch/arm64/include/asm/memory.h"
	.file 136 "/cloud/jenkins/workspace/950_chipset_0425_component/opensource/component_code/vendor/huawei/extra/build/build_script/kirin_kernel_release/kernel/include/linux/highuid.h"
	.file 137 "/cloud/jenkins/workspace/950_chipset_0425_component/opensource/component_code/vendor/huawei/extra/build/build_script/kirin_kernel_release/kernel/include/asm-generic/percpu.h"
	.file 138 "/cloud/jenkins/workspace/950_chipset_0425_component/opensource/component_code/vendor/huawei/extra/build/build_script/kirin_kernel_release/kernel/include/linux/debug_locks.h"
	.file 139 "/cloud/jenkins/workspace/950_chipset_0425_component/opensource/component_code/vendor/huawei/extra/build/build_script/kirin_kernel_release/kernel/include/asm-generic/pgtable.h"
	.file 140 "/cloud/jenkins/workspace/950_chipset_0425_component/opensource/component_code/vendor/huawei/extra/build/build_script/kirin_kernel_release/kernel/arch/arm64/include/asm/irq.h"
	.file 141 "/cloud/jenkins/workspace/950_chipset_0425_component/opensource/component_code/vendor/huawei/extra/build/build_script/kirin_kernel_release/kernel/arch/arm64/include/asm/hardirq.h"
	.file 142 "/cloud/jenkins/workspace/950_chipset_0425_component/opensource/component_code/vendor/huawei/extra/build/build_script/kirin_kernel_release/kernel/include/linux/slab.h"
	.file 143 "/cloud/jenkins/workspace/950_chipset_0425_component/opensource/component_code/vendor/huawei/extra/build/build_script/kirin_kernel_release/kernel/include/trace/events/block.h"
	.file 144 "/cloud/jenkins/workspace/950_chipset_0425_component/opensource/component_code/vendor/huawei/extra/build/build_script/kirin_kernel_release/kernel/arch/arm64/include/../../arm/include/asm/xen/hypervisor.h"
	.file 145 "/cloud/jenkins/workspace/950_chipset_0425_component/opensource/component_code/vendor/huawei/extra/build/build_script/kirin_kernel_release/kernel/arch/arm64/include/asm/dma-mapping.h"
	.file 146 "/cloud/jenkins/workspace/950_chipset_0425_component/opensource/component_code/vendor/huawei/extra/build/build_script/kirin_kernel_release/kernel/include/scsi/scsi_common.h"
	.section	.note.GNU-stack,"",%progbits
