	.cpu generic+fp+simd
	.file	"hisi-blk-settings.c"
	.text
.Ltext0:
	.cfi_sections	.debug_frame
#APP
	.irp	num,0,1,2,3,4,5,6,7,8,9,10,11,12,13,14,15,16,17,18,19,20,21,22,23,24,25,26,27,28,29,30
	.equ	.L__reg_num_x\num, \num
	.endr
	.equ	.L__reg_num_xzr, 31

	.macro	mrs_s, rt, sreg
	.inst	0xd5200000|(\sreg)|(.L__reg_num_\rt)
	.endm

	.macro	msr_s, sreg, rt
	.inst	0xd5000000|(\sreg)|(.L__reg_num_\rt)
	.endm

#NO_APP
	.align	2
	.global	blk_flush_reduce
	.type	blk_flush_reduce, %function
blk_flush_reduce:
.LFB2574:
	.file 1 "/cloud/jenkins/workspace/950_chipset_0425_component/opensource/component_code/vendor/huawei/extra/build/build_script/kirin_kernel_release/kernel/block/hisi-blk-settings.c"
	.loc 1 97 0
	.cfi_startproc
.LVL0:
	.loc 1 97 0
	uxtb	w1, w1
	.loc 1 98 0
	cmp	w1, wzr
	cset	w1, ne
.LVL1:
	strb	w1, [x0,440]
	.loc 1 99 0
	ret
	.cfi_endproc
.LFE2574:
	.size	blk_flush_reduce, .-blk_flush_reduce
	.align	2
	.global	blk_flush_set_async
	.type	blk_flush_set_async, %function
blk_flush_set_async:
.LFB2575:
	.loc 1 103 0
	.cfi_startproc
.LVL2:
	.loc 1 104 0
	mov	w1, 1
	strb	w1, [x0,32]
	.loc 1 105 0
	ret
	.cfi_endproc
.LFE2575:
	.size	blk_flush_set_async, .-blk_flush_set_async
	.align	2
	.global	blk_flush_async_support
	.type	blk_flush_async_support, %function
blk_flush_async_support:
.LFB2576:
	.loc 1 109 0
	.cfi_startproc
.LVL3:
.LBB10:
.LBB11:
	.file 2 "/cloud/jenkins/workspace/950_chipset_0425_component/opensource/component_code/vendor/huawei/extra/build/build_script/kirin_kernel_release/kernel/include/linux/blkdev.h"
	.loc 2 1293 0
	ldr	x0, [x0,160]
.LVL4:
.LBE11:
.LBE10:
	.loc 1 111 0
	ldr	x0, [x0,928]
	.loc 1 112 0
	ldrb	w0, [x0,440]
	ret
	.cfi_endproc
.LFE2576:
	.size	blk_flush_async_support, .-blk_flush_async_support
	.align	2
	.global	blk_queue_flush_async_support
	.type	blk_queue_flush_async_support, %function
blk_queue_flush_async_support:
.LFB2577:
	.loc 1 116 0
	.cfi_startproc
.LVL5:
	.loc 1 118 0
	ldrb	w0, [x0,440]
.LVL6:
	ret
	.cfi_endproc
.LFE2577:
	.size	blk_queue_flush_async_support, .-blk_queue_flush_async_support
	.align	2
	.global	blk_busy_idle_event_subscriber
	.type	blk_busy_idle_event_subscriber, %function
blk_busy_idle_event_subscriber:
.LFB2563:
	.loc 1 12 0
	.cfi_startproc
.LVL7:
	stp	x29, x30, [sp, -16]!
	.cfi_def_cfa_offset 16
	.cfi_offset 29, -16
	.cfi_offset 30, -8
	add	x29, sp, 0
	.cfi_def_cfa_register 29
.LBB12:
.LBB13:
	.loc 2 1293 0
	ldr	x0, [x0,160]
.LVL8:
.LBE13:
.LBE12:
	.loc 1 13 0 discriminator 1
	ldr	x0, [x0,928]
	bl	blk_busy_idle_event_register
.LVL9:
	.loc 1 14 0
	ldp	x29, x30, [sp], 16
	.cfi_restore 30
	.cfi_restore 29
	.cfi_def_cfa 31, 0
	ret
	.cfi_endproc
.LFE2563:
	.size	blk_busy_idle_event_subscriber, .-blk_busy_idle_event_subscriber
	.align	2
	.global	blk_queue_busy_idle_event_subscriber
	.type	blk_queue_busy_idle_event_subscriber, %function
blk_queue_busy_idle_event_subscriber:
.LFB2564:
	.loc 1 18 0
	.cfi_startproc
.LVL10:
	stp	x29, x30, [sp, -16]!
	.cfi_def_cfa_offset 16
	.cfi_offset 29, -16
	.cfi_offset 30, -8
	add	x29, sp, 0
	.cfi_def_cfa_register 29
	.loc 1 19 0
	bl	blk_busy_idle_event_register
.LVL11:
	.loc 1 20 0
	ldp	x29, x30, [sp], 16
	.cfi_restore 30
	.cfi_restore 29
	.cfi_def_cfa 31, 0
	ret
	.cfi_endproc
.LFE2564:
	.size	blk_queue_busy_idle_event_subscriber, .-blk_queue_busy_idle_event_subscriber
	.align	2
	.global	blk_busy_idle_event_unsubscriber
	.type	blk_busy_idle_event_unsubscriber, %function
blk_busy_idle_event_unsubscriber:
.LFB2565:
	.loc 1 24 0
	.cfi_startproc
.LVL12:
	stp	x29, x30, [sp, -16]!
	.cfi_def_cfa_offset 16
	.cfi_offset 29, -16
	.cfi_offset 30, -8
	add	x29, sp, 0
	.cfi_def_cfa_register 29
.LBB14:
.LBB15:
	.loc 2 1293 0
	ldr	x0, [x0,160]
.LVL13:
.LBE15:
.LBE14:
	.loc 1 25 0 discriminator 1
	ldr	x0, [x0,928]
	bl	blk_busy_idle_event_unregister
.LVL14:
	.loc 1 26 0
	ldp	x29, x30, [sp], 16
	.cfi_restore 30
	.cfi_restore 29
	.cfi_def_cfa 31, 0
	ret
	.cfi_endproc
.LFE2565:
	.size	blk_busy_idle_event_unsubscriber, .-blk_busy_idle_event_unsubscriber
	.align	2
	.global	blk_queue_busy_idle_event_unsubscriber
	.type	blk_queue_busy_idle_event_unsubscriber, %function
blk_queue_busy_idle_event_unsubscriber:
.LFB2566:
	.loc 1 30 0
	.cfi_startproc
.LVL15:
	stp	x29, x30, [sp, -16]!
	.cfi_def_cfa_offset 16
	.cfi_offset 29, -16
	.cfi_offset 30, -8
	add	x29, sp, 0
	.cfi_def_cfa_register 29
	.loc 1 31 0
	bl	blk_busy_idle_event_unregister
.LVL16:
	.loc 1 32 0
	ldp	x29, x30, [sp], 16
	.cfi_restore 30
	.cfi_restore 29
	.cfi_def_cfa 31, 0
	ret
	.cfi_endproc
.LFE2566:
	.size	blk_queue_busy_idle_event_unsubscriber, .-blk_queue_busy_idle_event_unsubscriber
	.align	2
	.global	blk_busy_idle_enable_query
	.type	blk_busy_idle_enable_query, %function
blk_busy_idle_enable_query:
.LFB2567:
	.loc 1 36 0
	.cfi_startproc
.LVL17:
	stp	x29, x30, [sp, -16]!
	.cfi_def_cfa_offset 16
	.cfi_offset 29, -16
	.cfi_offset 30, -8
	add	x29, sp, 0
	.cfi_def_cfa_register 29
.LBB16:
.LBB17:
	.loc 2 1293 0
	ldr	x0, [x0,160]
.LVL18:
.LBE17:
.LBE16:
	.loc 1 37 0 discriminator 1
	ldr	x0, [x0,928]
	bl	blk_get_lld
.LVL19:
	.loc 1 38 0
	ldrb	w0, [x0,184]
	.loc 1 39 0
	ldp	x29, x30, [sp], 16
	.cfi_restore 30
	.cfi_restore 29
	.cfi_def_cfa 31, 0
	.loc 1 38 0
	cmp	w0, wzr
	.loc 1 39 0
	cset	w0, ne
	ret
	.cfi_endproc
.LFE2567:
	.size	blk_busy_idle_enable_query, .-blk_busy_idle_enable_query
	.align	2
	.global	blk_queue_busy_idle_enable
	.type	blk_queue_busy_idle_enable, %function
blk_queue_busy_idle_enable:
.LFB2568:
	.loc 1 43 0
	.cfi_startproc
.LVL20:
	stp	x29, x30, [sp, -32]!
	.cfi_def_cfa_offset 32
	.cfi_offset 29, -32
	.cfi_offset 30, -24
	add	x29, sp, 0
	.cfi_def_cfa_register 29
	.loc 1 43 0
	str	x1, [x29,24]
	.loc 1 44 0
	bl	blk_get_lld
.LVL21:
	.loc 1 45 0
	ldr	x1, [x29,24]
.LVL22:
	cmp	w1, wzr
	cset	w1, ne
.LVL23:
	strb	w1, [x0,184]
	.loc 1 46 0
	ldp	x29, x30, [sp], 32
	.cfi_restore 30
	.cfi_restore 29
	.cfi_def_cfa 31, 0
	ret
	.cfi_endproc
.LFE2568:
	.size	blk_queue_busy_idle_enable, .-blk_queue_busy_idle_enable
	.align	2
	.global	blk_direct_flush_register
	.type	blk_direct_flush_register, %function
blk_direct_flush_register:
.LFB2573:
	.loc 1 87 0
	.cfi_startproc
.LVL24:
	stp	x29, x30, [sp, -32]!
	.cfi_def_cfa_offset 32
	.cfi_offset 29, -32
	.cfi_offset 30, -24
	add	x29, sp, 0
	.cfi_def_cfa_register 29
	str	x19, [sp,16]
	.cfi_offset 19, -16
	.loc 1 87 0
	mov	x19, x0
	.loc 1 88 0
	ldr	x2, [x0,464]
	cbz	x2, .L12
	.loc 1 88 0 is_stmt 0 discriminator 1
	cbz	x1, .L21
	.loc 1 90 0 is_stmt 1
	str	x1, [x0,464]
.L15:
.LVL25:
	.loc 1 92 0
	mov	x0, x19
	bl	blk_flush_reduced_queue_register
.LVL26:
.L11:
	.loc 1 93 0
	ldr	x19, [sp,16]
	.cfi_remember_state
	.cfi_restore 19
.LVL27:
	ldp	x29, x30, [sp], 32
	.cfi_restore 30
	.cfi_restore 29
	.cfi_def_cfa 31, 0
	ret
.LVL28:
.L12:
	.cfi_restore_state
	.loc 1 90 0
	str	x1, [x0,464]
	.loc 1 91 0
	cbnz	x1, .L15
	.loc 1 93 0
	ldr	x19, [sp,16]
	.cfi_remember_state
	.cfi_restore 19
	ldp	x29, x30, [sp], 32
	.cfi_restore 29
	.cfi_restore 30
	.cfi_def_cfa 31, 0
	ret
.L21:
	.cfi_restore_state
	.loc 1 89 0
	bl	blk_flush_reduced_queue_unregister
.LVL29:
	.loc 1 90 0
	str	xzr, [x19,464]
	b	.L11
	.cfi_endproc
.LFE2573:
	.size	blk_direct_flush_register, .-blk_direct_flush_register
	.align	2
	.global	blk_queue_io_latency_check_enable
	.type	blk_queue_io_latency_check_enable, %function
blk_queue_io_latency_check_enable:
.LFB2569:
	.loc 1 59 0
	.cfi_startproc
.LVL30:
	stp	x29, x30, [sp, -16]!
	.cfi_def_cfa_offset 16
	.cfi_offset 29, -16
	.cfi_offset 30, -8
	add	x29, sp, 0
	.cfi_def_cfa_register 29
	.loc 1 60 0
	ldrb	w3, [x0,976]
	cmp	w3, w1
	beq	.L22
	.loc 1 62 0
	cmp	w1, wzr
	cset	w1, ne
.LVL31:
	strb	w1, [x0,976]
	.loc 1 63 0
	cbnz	w1, .L29
.LVL32:
.L22:
	.loc 1 65 0
	ldp	x29, x30, [sp], 16
	.cfi_remember_state
	.cfi_restore 30
	.cfi_restore 29
	.cfi_def_cfa 31, 0
	ret
.LVL33:
.L29:
	.cfi_restore_state
	.loc 1 64 0
	bl	blk_queue_latency_statistic_clear
.LVL34:
	.loc 1 65 0
	ldp	x29, x30, [sp], 16
	.cfi_restore 29
	.cfi_restore 30
	.cfi_def_cfa 31, 0
	ret
	.cfi_endproc
.LFE2569:
	.size	blk_queue_io_latency_check_enable, .-blk_queue_io_latency_check_enable
	.align	2
	.global	blk_queue_io_latency_statistic_enable
	.type	blk_queue_io_latency_statistic_enable, %function
blk_queue_io_latency_statistic_enable:
.LFB2570:
	.loc 1 68 0
	.cfi_startproc
.LVL35:
	stp	x29, x30, [sp, -16]!
	.cfi_def_cfa_offset 16
	.cfi_offset 29, -16
	.cfi_offset 30, -8
	add	x29, sp, 0
	.cfi_def_cfa_register 29
	.loc 1 69 0
	cbz	w1, .L31
	.loc 1 69 0 is_stmt 0 discriminator 1
	ldrb	w1, [x0,976]
.LVL36:
	.loc 1 69 0 discriminator 4
	strb	w1, [x0,977]
	.loc 1 70 0 is_stmt 1
	cbz	w1, .L30
	.loc 1 71 0
	bl	blk_queue_latency_statistic_clear
.LVL37:
.L30:
	.loc 1 72 0
	ldp	x29, x30, [sp], 16
	.cfi_remember_state
	.cfi_restore 30
	.cfi_restore 29
	.cfi_def_cfa 31, 0
	ret
.LVL38:
.L31:
	.cfi_restore_state
	.loc 1 69 0 discriminator 4
	strb	wzr, [x0,977]
	.loc 1 72 0
	ldp	x29, x30, [sp], 16
	.cfi_restore 29
	.cfi_restore 30
	.cfi_def_cfa 31, 0
	ret
	.cfi_endproc
.LFE2570:
	.size	blk_queue_io_latency_statistic_enable, .-blk_queue_io_latency_statistic_enable
	.align	2
	.global	blk_queue_io_latency_warning_threshold
	.type	blk_queue_io_latency_warning_threshold, %function
blk_queue_io_latency_warning_threshold:
.LFB2571:
	.loc 1 75 0
	.cfi_startproc
.LVL39:
	.loc 1 76 0
	str	w1, [x0,980]
	.loc 1 77 0
	ret
	.cfi_endproc
.LFE2571:
	.size	blk_queue_io_latency_warning_threshold, .-blk_queue_io_latency_warning_threshold
	.align	2
	.global	blk_lld_dump_register
	.type	blk_lld_dump_register, %function
blk_lld_dump_register:
.LFB2572:
	.loc 1 81 0
	.cfi_startproc
.LVL40:
	.loc 1 82 0
	str	x1, [x0,888]
	.loc 1 83 0
	ret
	.cfi_endproc
.LFE2572:
	.size	blk_lld_dump_register, .-blk_lld_dump_register
	.global	__ksymtab_blk_queue_flush_async_support
	.global	__ksymtab_blk_flush_async_support
	.global	__ksymtab_blk_flush_set_async
	.global	__ksymtab_blk_flush_reduce
	.global	__ksymtab_blk_direct_flush_register
	.global	__ksymtab_blk_queue_busy_idle_enable
	.global	__ksymtab_blk_busy_idle_enable_query
	.global	__ksymtab_blk_queue_busy_idle_event_unsubscriber
	.global	__ksymtab_blk_busy_idle_event_unsubscriber
	.global	__ksymtab_blk_queue_busy_idle_event_subscriber
	.global	__ksymtab_blk_busy_idle_event_subscriber
	.section	__ksymtab_strings,"a",%progbits
	.type	__kstrtab_blk_queue_flush_async_support, %object
	.size	__kstrtab_blk_queue_flush_async_support, 30
__kstrtab_blk_queue_flush_async_support:
	.string	"blk_queue_flush_async_support"
	.type	__kstrtab_blk_flush_async_support, %object
	.size	__kstrtab_blk_flush_async_support, 24
__kstrtab_blk_flush_async_support:
	.string	"blk_flush_async_support"
	.type	__kstrtab_blk_flush_set_async, %object
	.size	__kstrtab_blk_flush_set_async, 20
__kstrtab_blk_flush_set_async:
	.string	"blk_flush_set_async"
	.type	__kstrtab_blk_flush_reduce, %object
	.size	__kstrtab_blk_flush_reduce, 17
__kstrtab_blk_flush_reduce:
	.string	"blk_flush_reduce"
	.type	__kstrtab_blk_direct_flush_register, %object
	.size	__kstrtab_blk_direct_flush_register, 26
__kstrtab_blk_direct_flush_register:
	.string	"blk_direct_flush_register"
	.type	__kstrtab_blk_queue_busy_idle_enable, %object
	.size	__kstrtab_blk_queue_busy_idle_enable, 27
__kstrtab_blk_queue_busy_idle_enable:
	.string	"blk_queue_busy_idle_enable"
	.type	__kstrtab_blk_busy_idle_enable_query, %object
	.size	__kstrtab_blk_busy_idle_enable_query, 27
__kstrtab_blk_busy_idle_enable_query:
	.string	"blk_busy_idle_enable_query"
	.type	__kstrtab_blk_queue_busy_idle_event_unsubscriber, %object
	.size	__kstrtab_blk_queue_busy_idle_event_unsubscriber, 39
__kstrtab_blk_queue_busy_idle_event_unsubscriber:
	.string	"blk_queue_busy_idle_event_unsubscriber"
	.type	__kstrtab_blk_busy_idle_event_unsubscriber, %object
	.size	__kstrtab_blk_busy_idle_event_unsubscriber, 33
__kstrtab_blk_busy_idle_event_unsubscriber:
	.string	"blk_busy_idle_event_unsubscriber"
	.type	__kstrtab_blk_queue_busy_idle_event_subscriber, %object
	.size	__kstrtab_blk_queue_busy_idle_event_subscriber, 37
__kstrtab_blk_queue_busy_idle_event_subscriber:
	.string	"blk_queue_busy_idle_event_subscriber"
	.type	__kstrtab_blk_busy_idle_event_subscriber, %object
	.size	__kstrtab_blk_busy_idle_event_subscriber, 31
__kstrtab_blk_busy_idle_event_subscriber:
	.string	"blk_busy_idle_event_subscriber"
	.section	___ksymtab_gpl+blk_flush_async_support,"a",%progbits
	.align	3
	.type	__ksymtab_blk_flush_async_support, %object
	.size	__ksymtab_blk_flush_async_support, 16
__ksymtab_blk_flush_async_support:
	.xword	blk_flush_async_support
	.xword	__kstrtab_blk_flush_async_support
	.section	___kcrctab_gpl+blk_direct_flush_register,"a",%progbits
	.align	3
	.type	__kcrctab_blk_direct_flush_register, %object
	.size	__kcrctab_blk_direct_flush_register, 8
__kcrctab_blk_direct_flush_register:
	.xword	__crc_blk_direct_flush_register
	.section	___kcrctab+blk_busy_idle_event_unsubscriber,"a",%progbits
	.align	3
	.type	__kcrctab_blk_busy_idle_event_unsubscriber, %object
	.size	__kcrctab_blk_busy_idle_event_unsubscriber, 8
__kcrctab_blk_busy_idle_event_unsubscriber:
	.xword	__crc_blk_busy_idle_event_unsubscriber
	.section	___kcrctab_gpl+blk_flush_async_support,"a",%progbits
	.align	3
	.type	__kcrctab_blk_flush_async_support, %object
	.size	__kcrctab_blk_flush_async_support, 8
__kcrctab_blk_flush_async_support:
	.xword	__crc_blk_flush_async_support
	.section	___ksymtab+blk_busy_idle_event_unsubscriber,"a",%progbits
	.align	3
	.type	__ksymtab_blk_busy_idle_event_unsubscriber, %object
	.size	__ksymtab_blk_busy_idle_event_unsubscriber, 16
__ksymtab_blk_busy_idle_event_unsubscriber:
	.xword	blk_busy_idle_event_unsubscriber
	.xword	__kstrtab_blk_busy_idle_event_unsubscriber
	.section	___kcrctab+blk_busy_idle_event_subscriber,"a",%progbits
	.align	3
	.type	__kcrctab_blk_busy_idle_event_subscriber, %object
	.size	__kcrctab_blk_busy_idle_event_subscriber, 8
__kcrctab_blk_busy_idle_event_subscriber:
	.xword	__crc_blk_busy_idle_event_subscriber
	.section	___ksymtab+blk_busy_idle_event_subscriber,"a",%progbits
	.align	3
	.type	__ksymtab_blk_busy_idle_event_subscriber, %object
	.size	__ksymtab_blk_busy_idle_event_subscriber, 16
__ksymtab_blk_busy_idle_event_subscriber:
	.xword	blk_busy_idle_event_subscriber
	.xword	__kstrtab_blk_busy_idle_event_subscriber
	.section	___kcrctab+blk_busy_idle_enable_query,"a",%progbits
	.align	3
	.type	__kcrctab_blk_busy_idle_enable_query, %object
	.size	__kcrctab_blk_busy_idle_enable_query, 8
__kcrctab_blk_busy_idle_enable_query:
	.xword	__crc_blk_busy_idle_enable_query
	.section	___kcrctab+blk_queue_busy_idle_enable,"a",%progbits
	.align	3
	.type	__kcrctab_blk_queue_busy_idle_enable, %object
	.size	__kcrctab_blk_queue_busy_idle_enable, 8
__kcrctab_blk_queue_busy_idle_enable:
	.xword	__crc_blk_queue_busy_idle_enable
	.section	___ksymtab+blk_busy_idle_enable_query,"a",%progbits
	.align	3
	.type	__ksymtab_blk_busy_idle_enable_query, %object
	.size	__ksymtab_blk_busy_idle_enable_query, 16
__ksymtab_blk_busy_idle_enable_query:
	.xword	blk_busy_idle_enable_query
	.xword	__kstrtab_blk_busy_idle_enable_query
	.section	___kcrctab+blk_queue_busy_idle_event_subscriber,"a",%progbits
	.align	3
	.type	__kcrctab_blk_queue_busy_idle_event_subscriber, %object
	.size	__kcrctab_blk_queue_busy_idle_event_subscriber, 8
__kcrctab_blk_queue_busy_idle_event_subscriber:
	.xword	__crc_blk_queue_busy_idle_event_subscriber
	.section	___ksymtab_gpl+blk_queue_flush_async_support,"a",%progbits
	.align	3
	.type	__ksymtab_blk_queue_flush_async_support, %object
	.size	__ksymtab_blk_queue_flush_async_support, 16
__ksymtab_blk_queue_flush_async_support:
	.xword	blk_queue_flush_async_support
	.xword	__kstrtab_blk_queue_flush_async_support
	.section	___ksymtab_gpl+blk_flush_set_async,"a",%progbits
	.align	3
	.type	__ksymtab_blk_flush_set_async, %object
	.size	__ksymtab_blk_flush_set_async, 16
__ksymtab_blk_flush_set_async:
	.xword	blk_flush_set_async
	.xword	__kstrtab_blk_flush_set_async
	.section	___kcrctab+blk_queue_busy_idle_event_unsubscriber,"a",%progbits
	.align	3
	.type	__kcrctab_blk_queue_busy_idle_event_unsubscriber, %object
	.size	__kcrctab_blk_queue_busy_idle_event_unsubscriber, 8
__kcrctab_blk_queue_busy_idle_event_unsubscriber:
	.xword	__crc_blk_queue_busy_idle_event_unsubscriber
	.section	___kcrctab_gpl+blk_flush_set_async,"a",%progbits
	.align	3
	.type	__kcrctab_blk_flush_set_async, %object
	.size	__kcrctab_blk_flush_set_async, 8
__kcrctab_blk_flush_set_async:
	.xword	__crc_blk_flush_set_async
	.section	___ksymtab+blk_queue_busy_idle_enable,"a",%progbits
	.align	3
	.type	__ksymtab_blk_queue_busy_idle_enable, %object
	.size	__ksymtab_blk_queue_busy_idle_enable, 16
__ksymtab_blk_queue_busy_idle_enable:
	.xword	blk_queue_busy_idle_enable
	.xword	__kstrtab_blk_queue_busy_idle_enable
	.section	___ksymtab_gpl+blk_direct_flush_register,"a",%progbits
	.align	3
	.type	__ksymtab_blk_direct_flush_register, %object
	.size	__ksymtab_blk_direct_flush_register, 16
__ksymtab_blk_direct_flush_register:
	.xword	blk_direct_flush_register
	.xword	__kstrtab_blk_direct_flush_register
	.section	___ksymtab+blk_queue_busy_idle_event_subscriber,"a",%progbits
	.align	3
	.type	__ksymtab_blk_queue_busy_idle_event_subscriber, %object
	.size	__ksymtab_blk_queue_busy_idle_event_subscriber, 16
__ksymtab_blk_queue_busy_idle_event_subscriber:
	.xword	blk_queue_busy_idle_event_subscriber
	.xword	__kstrtab_blk_queue_busy_idle_event_subscriber
	.section	___kcrctab_gpl+blk_flush_reduce,"a",%progbits
	.align	3
	.type	__kcrctab_blk_flush_reduce, %object
	.size	__kcrctab_blk_flush_reduce, 8
__kcrctab_blk_flush_reduce:
	.xword	__crc_blk_flush_reduce
	.section	___ksymtab_gpl+blk_flush_reduce,"a",%progbits
	.align	3
	.type	__ksymtab_blk_flush_reduce, %object
	.size	__ksymtab_blk_flush_reduce, 16
__ksymtab_blk_flush_reduce:
	.xword	blk_flush_reduce
	.xword	__kstrtab_blk_flush_reduce
	.section	___ksymtab+blk_queue_busy_idle_event_unsubscriber,"a",%progbits
	.align	3
	.type	__ksymtab_blk_queue_busy_idle_event_unsubscriber, %object
	.size	__ksymtab_blk_queue_busy_idle_event_unsubscriber, 16
__ksymtab_blk_queue_busy_idle_event_unsubscriber:
	.xword	blk_queue_busy_idle_event_unsubscriber
	.xword	__kstrtab_blk_queue_busy_idle_event_unsubscriber
	.section	___kcrctab_gpl+blk_queue_flush_async_support,"a",%progbits
	.align	3
	.type	__kcrctab_blk_queue_flush_async_support, %object
	.size	__kcrctab_blk_queue_flush_async_support, 8
__kcrctab_blk_queue_flush_async_support:
	.xword	__crc_blk_queue_flush_async_support
	.weak	__crc_blk_queue_flush_async_support
	.weak	__crc_blk_flush_reduce
	.weak	__crc_blk_flush_set_async
	.weak	__crc_blk_queue_busy_idle_event_unsubscriber
	.weak	__crc_blk_queue_busy_idle_event_subscriber
	.weak	__crc_blk_queue_busy_idle_enable
	.weak	__crc_blk_busy_idle_enable_query
	.weak	__crc_blk_busy_idle_event_subscriber
	.weak	__crc_blk_flush_async_support
	.weak	__crc_blk_busy_idle_event_unsubscriber
	.weak	__crc_blk_direct_flush_register
	.text
.Letext0:
	.file 3 "/cloud/jenkins/workspace/950_chipset_0425_component/opensource/component_code/vendor/huawei/extra/build/build_script/kirin_kernel_release/kernel/include/uapi/asm-generic/int-ll64.h"
	.file 4 "/cloud/jenkins/workspace/950_chipset_0425_component/opensource/component_code/vendor/huawei/extra/build/build_script/kirin_kernel_release/kernel/include/asm-generic/int-ll64.h"
	.file 5 "/cloud/jenkins/workspace/950_chipset_0425_component/opensource/component_code/vendor/huawei/extra/build/build_script/kirin_kernel_release/kernel/include/uapi/asm-generic/posix_types.h"
	.file 6 "/cloud/jenkins/workspace/950_chipset_0425_component/opensource/component_code/vendor/huawei/extra/build/build_script/kirin_kernel_release/kernel/include/linux/export.h"
	.file 7 "/cloud/jenkins/workspace/950_chipset_0425_component/opensource/component_code/vendor/huawei/extra/build/build_script/kirin_kernel_release/kernel/include/linux/types.h"
	.file 8 "/cloud/jenkins/workspace/950_chipset_0425_component/opensource/component_code/vendor/huawei/extra/build/build_script/kirin_kernel_release/kernel/include/linux/capability.h"
	.file 9 "/cloud/jenkins/workspace/950_chipset_0425_component/opensource/component_code/vendor/huawei/extra/build/build_script/kirin_kernel_release/kernel/include/asm-generic/bug.h"
	.file 10 "/cloud/jenkins/workspace/950_chipset_0425_component/opensource/component_code/vendor/huawei/extra/build/build_script/kirin_kernel_release/kernel/include/linux/thread_info.h"
	.file 11 "/cloud/jenkins/workspace/950_chipset_0425_component/opensource/component_code/vendor/huawei/extra/build/build_script/kirin_kernel_release/kernel/include/uapi/linux/time.h"
	.file 12 "/cloud/jenkins/workspace/950_chipset_0425_component/opensource/component_code/vendor/huawei/extra/build/build_script/kirin_kernel_release/kernel/arch/arm64/include/asm/compat.h"
	.file 13 "/cloud/jenkins/workspace/950_chipset_0425_component/opensource/component_code/vendor/huawei/extra/build/build_script/kirin_kernel_release/kernel/include/linux/sched.h"
	.file 14 "/cloud/jenkins/workspace/950_chipset_0425_component/opensource/component_code/vendor/huawei/extra/build/build_script/kirin_kernel_release/kernel/arch/arm64/include/uapi/asm/ptrace.h"
	.file 15 "/cloud/jenkins/workspace/950_chipset_0425_component/opensource/component_code/vendor/huawei/extra/build/build_script/kirin_kernel_release/kernel/arch/arm64/include/asm/spinlock_types.h"
	.file 16 "/cloud/jenkins/workspace/950_chipset_0425_component/opensource/component_code/vendor/huawei/extra/build/build_script/kirin_kernel_release/kernel/include/linux/spinlock_types.h"
	.file 17 "/cloud/jenkins/workspace/950_chipset_0425_component/opensource/component_code/vendor/huawei/extra/build/build_script/kirin_kernel_release/kernel/include/linux/rwlock_types.h"
	.file 18 "/cloud/jenkins/workspace/950_chipset_0425_component/opensource/component_code/vendor/huawei/extra/build/build_script/kirin_kernel_release/kernel/arch/arm64/include/asm/fpsimd.h"
	.file 19 "/cloud/jenkins/workspace/950_chipset_0425_component/opensource/component_code/vendor/huawei/extra/build/build_script/kirin_kernel_release/kernel/arch/arm64/include/asm/processor.h"
	.file 20 "/cloud/jenkins/workspace/950_chipset_0425_component/opensource/component_code/vendor/huawei/extra/build/build_script/kirin_kernel_release/kernel/include/asm-generic/atomic-long.h"
	.file 21 "/cloud/jenkins/workspace/950_chipset_0425_component/opensource/component_code/vendor/huawei/extra/build/build_script/kirin_kernel_release/kernel/include/linux/seqlock.h"
	.file 22 "/cloud/jenkins/workspace/950_chipset_0425_component/opensource/component_code/vendor/huawei/extra/build/build_script/kirin_kernel_release/kernel/include/linux/plist.h"
	.file 23 "/cloud/jenkins/workspace/950_chipset_0425_component/opensource/component_code/vendor/huawei/extra/build/build_script/kirin_kernel_release/kernel/include/linux/cpumask.h"
	.file 24 "/cloud/jenkins/workspace/950_chipset_0425_component/opensource/component_code/vendor/huawei/extra/build/build_script/kirin_kernel_release/kernel/include/linux/wait.h"
	.file 25 "/cloud/jenkins/workspace/950_chipset_0425_component/opensource/component_code/vendor/huawei/extra/build/build_script/kirin_kernel_release/kernel/include/linux/completion.h"
	.file 26 "/cloud/jenkins/workspace/950_chipset_0425_component/opensource/component_code/vendor/huawei/extra/build/build_script/kirin_kernel_release/kernel/include/linux/ktime.h"
	.file 27 "/cloud/jenkins/workspace/950_chipset_0425_component/opensource/component_code/vendor/huawei/extra/build/build_script/kirin_kernel_release/kernel/include/linux/rbtree.h"
	.file 28 "/cloud/jenkins/workspace/950_chipset_0425_component/opensource/component_code/vendor/huawei/extra/build/build_script/kirin_kernel_release/kernel/include/linux/nodemask.h"
	.file 29 "/cloud/jenkins/workspace/950_chipset_0425_component/opensource/component_code/vendor/huawei/extra/build/build_script/kirin_kernel_release/kernel/include/linux/osq_lock.h"
	.file 30 "/cloud/jenkins/workspace/950_chipset_0425_component/opensource/component_code/vendor/huawei/extra/build/build_script/kirin_kernel_release/kernel/include/linux/rwsem.h"
	.file 31 "/cloud/jenkins/workspace/950_chipset_0425_component/opensource/component_code/vendor/huawei/extra/build/build_script/kirin_kernel_release/kernel/include/linux/mm_types.h"
	.file 32 "/cloud/jenkins/workspace/950_chipset_0425_component/opensource/component_code/vendor/huawei/extra/build/build_script/kirin_kernel_release/kernel/include/linux/lockdep.h"
	.file 33 "/cloud/jenkins/workspace/950_chipset_0425_component/opensource/component_code/vendor/huawei/extra/build/build_script/kirin_kernel_release/kernel/include/linux/uprobes.h"
	.file 34 "/cloud/jenkins/workspace/950_chipset_0425_component/opensource/component_code/vendor/huawei/extra/build/build_script/kirin_kernel_release/kernel/include/linux/timer.h"
	.file 35 "/cloud/jenkins/workspace/950_chipset_0425_component/opensource/component_code/vendor/huawei/extra/build/build_script/kirin_kernel_release/kernel/include/linux/workqueue.h"
	.file 36 "/cloud/jenkins/workspace/950_chipset_0425_component/opensource/component_code/vendor/huawei/extra/build/build_script/kirin_kernel_release/kernel/arch/arm64/include/asm/pgtable-types.h"
	.file 37 "/cloud/jenkins/workspace/950_chipset_0425_component/opensource/component_code/vendor/huawei/extra/build/build_script/kirin_kernel_release/kernel/arch/arm64/include/asm/mmu.h"
	.file 38 "/cloud/jenkins/workspace/950_chipset_0425_component/opensource/component_code/vendor/huawei/extra/build/build_script/kirin_kernel_release/kernel/include/linux/fs.h"
	.file 39 "/cloud/jenkins/workspace/950_chipset_0425_component/opensource/component_code/vendor/huawei/extra/build/build_script/kirin_kernel_release/kernel/include/linux/mm.h"
	.file 40 "/cloud/jenkins/workspace/950_chipset_0425_component/opensource/component_code/vendor/huawei/extra/build/build_script/kirin_kernel_release/kernel/include/asm-generic/cputime_jiffies.h"
	.file 41 "/cloud/jenkins/workspace/950_chipset_0425_component/opensource/component_code/vendor/huawei/extra/build/build_script/kirin_kernel_release/kernel/include/linux/llist.h"
	.file 42 "/cloud/jenkins/workspace/950_chipset_0425_component/opensource/component_code/vendor/huawei/extra/build/build_script/kirin_kernel_release/kernel/include/linux/smp.h"
	.file 43 "/cloud/jenkins/workspace/950_chipset_0425_component/opensource/component_code/vendor/huawei/extra/build/build_script/kirin_kernel_release/kernel/arch/arm64/include/asm/smp.h"
	.file 44 "/cloud/jenkins/workspace/950_chipset_0425_component/opensource/component_code/vendor/huawei/extra/build/build_script/kirin_kernel_release/kernel/include/linux/uidgid.h"
	.file 45 "/cloud/jenkins/workspace/950_chipset_0425_component/opensource/component_code/vendor/huawei/extra/build/build_script/kirin_kernel_release/kernel/include/uapi/asm-generic/signal.h"
	.file 46 "/cloud/jenkins/workspace/950_chipset_0425_component/opensource/component_code/vendor/huawei/extra/build/build_script/kirin_kernel_release/kernel/include/uapi/asm-generic/signal-defs.h"
	.file 47 "/cloud/jenkins/workspace/950_chipset_0425_component/opensource/component_code/vendor/huawei/extra/build/build_script/kirin_kernel_release/kernel/include/uapi/asm-generic/siginfo.h"
	.file 48 "/cloud/jenkins/workspace/950_chipset_0425_component/opensource/component_code/vendor/huawei/extra/build/build_script/kirin_kernel_release/kernel/include/linux/signal.h"
	.file 49 "/cloud/jenkins/workspace/950_chipset_0425_component/opensource/component_code/vendor/huawei/extra/build/build_script/kirin_kernel_release/kernel/include/linux/pid.h"
	.file 50 "/cloud/jenkins/workspace/950_chipset_0425_component/opensource/component_code/vendor/huawei/extra/build/build_script/kirin_kernel_release/kernel/include/linux/mmzone.h"
	.file 51 "/cloud/jenkins/workspace/950_chipset_0425_component/opensource/component_code/vendor/huawei/extra/build/build_script/kirin_kernel_release/kernel/include/linux/mutex.h"
	.file 52 "/cloud/jenkins/workspace/950_chipset_0425_component/opensource/component_code/vendor/huawei/extra/build/build_script/kirin_kernel_release/kernel/include/linux/notifier.h"
	.file 53 "/cloud/jenkins/workspace/950_chipset_0425_component/opensource/component_code/vendor/huawei/extra/build/build_script/kirin_kernel_release/kernel/include/linux/percpu_counter.h"
	.file 54 "/cloud/jenkins/workspace/950_chipset_0425_component/opensource/component_code/vendor/huawei/extra/build/build_script/kirin_kernel_release/kernel/include/linux/seccomp.h"
	.file 55 "/cloud/jenkins/workspace/950_chipset_0425_component/opensource/component_code/vendor/huawei/extra/build/build_script/kirin_kernel_release/kernel/include/uapi/linux/resource.h"
	.file 56 "/cloud/jenkins/workspace/950_chipset_0425_component/opensource/component_code/vendor/huawei/extra/build/build_script/kirin_kernel_release/kernel/include/linux/timerqueue.h"
	.file 57 "/cloud/jenkins/workspace/950_chipset_0425_component/opensource/component_code/vendor/huawei/extra/build/build_script/kirin_kernel_release/kernel/include/linux/hrtimer.h"
	.file 58 "/cloud/jenkins/workspace/950_chipset_0425_component/opensource/component_code/vendor/huawei/extra/build/build_script/kirin_kernel_release/kernel/include/linux/task_io_accounting.h"
	.file 59 "/cloud/jenkins/workspace/950_chipset_0425_component/opensource/component_code/vendor/huawei/extra/build/build_script/kirin_kernel_release/kernel/include/linux/assoc_array.h"
	.file 60 "/cloud/jenkins/workspace/950_chipset_0425_component/opensource/component_code/vendor/huawei/extra/build/build_script/kirin_kernel_release/kernel/include/linux/key.h"
	.file 61 "/cloud/jenkins/workspace/950_chipset_0425_component/opensource/component_code/vendor/huawei/extra/build/build_script/kirin_kernel_release/kernel/include/linux/cred.h"
	.file 62 "/cloud/jenkins/workspace/950_chipset_0425_component/opensource/component_code/vendor/huawei/extra/build/build_script/kirin_kernel_release/kernel/include/linux/idr.h"
	.file 63 "/cloud/jenkins/workspace/950_chipset_0425_component/opensource/component_code/vendor/huawei/extra/build/build_script/kirin_kernel_release/kernel/include/linux/percpu-refcount.h"
	.file 64 "/cloud/jenkins/workspace/950_chipset_0425_component/opensource/component_code/vendor/huawei/extra/build/build_script/kirin_kernel_release/kernel/include/linux/rcu_sync.h"
	.file 65 "/cloud/jenkins/workspace/950_chipset_0425_component/opensource/component_code/vendor/huawei/extra/build/build_script/kirin_kernel_release/kernel/include/linux/percpu-rwsem.h"
	.file 66 "/cloud/jenkins/workspace/950_chipset_0425_component/opensource/component_code/vendor/huawei/extra/build/build_script/kirin_kernel_release/kernel/include/linux/cgroup-defs.h"
	.file 67 "/cloud/jenkins/workspace/950_chipset_0425_component/opensource/component_code/vendor/huawei/extra/build/build_script/kirin_kernel_release/kernel/include/linux/kernfs.h"
	.file 68 "/cloud/jenkins/workspace/950_chipset_0425_component/opensource/component_code/vendor/huawei/extra/build/build_script/kirin_kernel_release/kernel/include/linux/seq_file.h"
	.file 69 "/cloud/jenkins/workspace/950_chipset_0425_component/opensource/component_code/vendor/huawei/extra/build/build_script/kirin_kernel_release/kernel/include/linux/bio.h"
	.file 70 "/cloud/jenkins/workspace/950_chipset_0425_component/opensource/component_code/vendor/huawei/extra/build/build_script/kirin_kernel_release/kernel/include/linux/backing-dev-defs.h"
	.file 71 "/cloud/jenkins/workspace/950_chipset_0425_component/opensource/component_code/vendor/huawei/extra/build/build_script/kirin_kernel_release/kernel/include/linux/iocontext.h"
	.file 72 "/cloud/jenkins/workspace/950_chipset_0425_component/opensource/component_code/vendor/huawei/extra/build/build_script/kirin_kernel_release/kernel/include/linux/stat.h"
	.file 73 "/cloud/jenkins/workspace/950_chipset_0425_component/opensource/component_code/vendor/huawei/extra/build/build_script/kirin_kernel_release/kernel/include/uapi/linux/elf.h"
	.file 74 "/cloud/jenkins/workspace/950_chipset_0425_component/opensource/component_code/vendor/huawei/extra/build/build_script/kirin_kernel_release/kernel/include/linux/kobject_ns.h"
	.file 75 "/cloud/jenkins/workspace/950_chipset_0425_component/opensource/component_code/vendor/huawei/extra/build/build_script/kirin_kernel_release/kernel/include/linux/sysfs.h"
	.file 76 "/cloud/jenkins/workspace/950_chipset_0425_component/opensource/component_code/vendor/huawei/extra/build/build_script/kirin_kernel_release/kernel/include/linux/kobject.h"
	.file 77 "/cloud/jenkins/workspace/950_chipset_0425_component/opensource/component_code/vendor/huawei/extra/build/build_script/kirin_kernel_release/kernel/include/linux/kref.h"
	.file 78 "/cloud/jenkins/workspace/950_chipset_0425_component/opensource/component_code/vendor/huawei/extra/build/build_script/kirin_kernel_release/kernel/include/linux/moduleparam.h"
	.file 79 "/cloud/jenkins/workspace/950_chipset_0425_component/opensource/component_code/vendor/huawei/extra/build/build_script/kirin_kernel_release/kernel/include/linux/module.h"
	.file 80 "/cloud/jenkins/workspace/950_chipset_0425_component/opensource/component_code/vendor/huawei/extra/build/build_script/kirin_kernel_release/kernel/include/linux/rbtree_latch.h"
	.file 81 "/cloud/jenkins/workspace/950_chipset_0425_component/opensource/component_code/vendor/huawei/extra/build/build_script/kirin_kernel_release/kernel/arch/arm64/include/asm/module.h"
	.file 82 "/cloud/jenkins/workspace/950_chipset_0425_component/opensource/component_code/vendor/huawei/extra/build/build_script/kirin_kernel_release/kernel/arch/arm64/include/asm/uaccess.h"
	.file 83 "/cloud/jenkins/workspace/950_chipset_0425_component/opensource/component_code/vendor/huawei/extra/build/build_script/kirin_kernel_release/kernel/include/linux/list_bl.h"
	.file 84 "/cloud/jenkins/workspace/950_chipset_0425_component/opensource/component_code/vendor/huawei/extra/build/build_script/kirin_kernel_release/kernel/include/linux/lockref.h"
	.file 85 "/cloud/jenkins/workspace/950_chipset_0425_component/opensource/component_code/vendor/huawei/extra/build/build_script/kirin_kernel_release/kernel/include/linux/dcache.h"
	.file 86 "/cloud/jenkins/workspace/950_chipset_0425_component/opensource/component_code/vendor/huawei/extra/build/build_script/kirin_kernel_release/kernel/include/linux/path.h"
	.file 87 "/cloud/jenkins/workspace/950_chipset_0425_component/opensource/component_code/vendor/huawei/extra/build/build_script/kirin_kernel_release/kernel/include/linux/shrinker.h"
	.file 88 "/cloud/jenkins/workspace/950_chipset_0425_component/opensource/component_code/vendor/huawei/extra/build/build_script/kirin_kernel_release/kernel/include/linux/list_lru.h"
	.file 89 "/cloud/jenkins/workspace/950_chipset_0425_component/opensource/component_code/vendor/huawei/extra/build/build_script/kirin_kernel_release/kernel/include/linux/radix-tree.h"
	.file 90 "/cloud/jenkins/workspace/950_chipset_0425_component/opensource/component_code/vendor/huawei/extra/build/build_script/kirin_kernel_release/kernel/include/uapi/linux/fiemap.h"
	.file 91 "/cloud/jenkins/workspace/950_chipset_0425_component/opensource/component_code/vendor/huawei/extra/build/build_script/kirin_kernel_release/kernel/include/linux/migrate_mode.h"
	.file 92 "/cloud/jenkins/workspace/950_chipset_0425_component/opensource/component_code/vendor/huawei/extra/build/build_script/kirin_kernel_release/kernel/include/linux/blk_types.h"
	.file 93 "/cloud/jenkins/workspace/950_chipset_0425_component/opensource/component_code/vendor/huawei/extra/build/build_script/kirin_kernel_release/kernel/include/linux/quota.h"
	.file 94 "/cloud/jenkins/workspace/950_chipset_0425_component/opensource/component_code/vendor/huawei/extra/build/build_script/kirin_kernel_release/kernel/include/linux/projid.h"
	.file 95 "/cloud/jenkins/workspace/950_chipset_0425_component/opensource/component_code/vendor/huawei/extra/build/build_script/kirin_kernel_release/kernel/include/linux/genhd.h"
	.file 96 "/cloud/jenkins/workspace/950_chipset_0425_component/opensource/component_code/vendor/huawei/extra/build/build_script/kirin_kernel_release/kernel/include/linux/nfs_fs_i.h"
	.file 97 "/cloud/jenkins/workspace/950_chipset_0425_component/opensource/component_code/vendor/huawei/extra/build/build_script/kirin_kernel_release/kernel/include/linux/vmstat.h"
	.file 98 "/cloud/jenkins/workspace/950_chipset_0425_component/opensource/component_code/vendor/huawei/extra/build/build_script/kirin_kernel_release/kernel/include/linux/mempool.h"
	.file 99 "/cloud/jenkins/workspace/950_chipset_0425_component/opensource/component_code/vendor/huawei/extra/build/build_script/kirin_kernel_release/kernel/include/linux/klist.h"
	.file 100 "/cloud/jenkins/workspace/950_chipset_0425_component/opensource/component_code/vendor/huawei/extra/build/build_script/kirin_kernel_release/kernel/include/linux/pinctrl/devinfo.h"
	.file 101 "/cloud/jenkins/workspace/950_chipset_0425_component/opensource/component_code/vendor/huawei/extra/build/build_script/kirin_kernel_release/kernel/include/linux/pm.h"
	.file 102 "/cloud/jenkins/workspace/950_chipset_0425_component/opensource/component_code/vendor/huawei/extra/build/build_script/kirin_kernel_release/kernel/include/linux/device.h"
	.file 103 "/cloud/jenkins/workspace/950_chipset_0425_component/opensource/component_code/vendor/huawei/extra/build/build_script/kirin_kernel_release/kernel/include/linux/pm_wakeup.h"
	.file 104 "/cloud/jenkins/workspace/950_chipset_0425_component/opensource/component_code/vendor/huawei/extra/build/build_script/kirin_kernel_release/kernel/arch/arm64/include/asm/device.h"
	.file 105 "/cloud/jenkins/workspace/950_chipset_0425_component/opensource/component_code/vendor/huawei/extra/build/build_script/kirin_kernel_release/kernel/include/linux/dma-mapping.h"
	.file 106 "/cloud/jenkins/workspace/950_chipset_0425_component/opensource/component_code/vendor/huawei/extra/build/build_script/kirin_kernel_release/kernel/include/linux/flex_proportions.h"
	.file 107 "/cloud/jenkins/workspace/950_chipset_0425_component/opensource/component_code/vendor/huawei/extra/build/build_script/kirin_kernel_release/kernel/include/linux/bsg.h"
	.file 108 "/cloud/jenkins/workspace/950_chipset_0425_component/opensource/component_code/vendor/huawei/extra/build/build_script/kirin_kernel_release/kernel/include/linux/wbt.h"
	.file 109 "/cloud/jenkins/workspace/950_chipset_0425_component/opensource/component_code/vendor/huawei/extra/build/build_script/kirin_kernel_release/kernel/include/linux/scatterlist.h"
	.file 110 "/cloud/jenkins/workspace/950_chipset_0425_component/opensource/component_code/vendor/huawei/extra/build/build_script/kirin_kernel_release/kernel/block/blk-mq.h"
	.file 111 "/cloud/jenkins/workspace/950_chipset_0425_component/opensource/component_code/vendor/huawei/extra/build/build_script/kirin_kernel_release/kernel/include/linux/elevator.h"
	.file 112 "/cloud/jenkins/workspace/950_chipset_0425_component/opensource/component_code/vendor/huawei/extra/build/build_script/kirin_kernel_release/kernel/include/linux/blk-mq.h"
	.file 113 "/cloud/jenkins/workspace/950_chipset_0425_component/opensource/component_code/vendor/huawei/extra/build/build_script/kirin_kernel_release/kernel/block/blk.h"
	.file 114 "/cloud/jenkins/workspace/950_chipset_0425_component/opensource/component_code/vendor/huawei/extra/build/build_script/kirin_kernel_release/kernel/include/linux/dma-attrs.h"
	.file 115 "/cloud/jenkins/workspace/950_chipset_0425_component/opensource/component_code/vendor/huawei/extra/build/build_script/kirin_kernel_release/kernel/include/linux/dma-direction.h"
	.file 116 "/cloud/jenkins/workspace/950_chipset_0425_component/opensource/component_code/vendor/huawei/extra/build/build_script/kirin_kernel_release/kernel/include/scsi/scsi_device.h"
	.file 117 "/cloud/jenkins/workspace/950_chipset_0425_component/opensource/component_code/vendor/huawei/extra/build/build_script/kirin_kernel_release/kernel/arch/arm64/include/asm/cachetype.h"
	.file 118 "/cloud/jenkins/workspace/950_chipset_0425_component/opensource/component_code/vendor/huawei/extra/build/build_script/kirin_kernel_release/kernel/include/linux/printk.h"
	.file 119 "/cloud/jenkins/workspace/950_chipset_0425_component/opensource/component_code/vendor/huawei/extra/build/build_script/kirin_kernel_release/kernel/include/linux/kernel.h"
	.file 120 "/cloud/jenkins/workspace/950_chipset_0425_component/opensource/component_code/vendor/huawei/extra/build/build_script/kirin_kernel_release/kernel/arch/arm64/include/asm/thread_info.h"
	.file 121 "/cloud/jenkins/workspace/950_chipset_0425_component/opensource/component_code/vendor/huawei/extra/build/build_script/kirin_kernel_release/kernel/arch/arm64/include/asm/hwcap.h"
	.file 122 "/cloud/jenkins/workspace/950_chipset_0425_component/opensource/component_code/vendor/huawei/extra/build/build_script/kirin_kernel_release/kernel/arch/arm64/include/asm/cpufeature.h"
	.file 123 "/cloud/jenkins/workspace/950_chipset_0425_component/opensource/component_code/vendor/huawei/extra/build/build_script/kirin_kernel_release/kernel/include/linux/jiffies.h"
	.file 124 "/cloud/jenkins/workspace/950_chipset_0425_component/opensource/component_code/vendor/huawei/extra/build/build_script/kirin_kernel_release/kernel/arch/arm64/include/asm/memory.h"
	.file 125 "/cloud/jenkins/workspace/950_chipset_0425_component/opensource/component_code/vendor/huawei/extra/build/build_script/kirin_kernel_release/kernel/include/linux/highuid.h"
	.file 126 "/cloud/jenkins/workspace/950_chipset_0425_component/opensource/component_code/vendor/huawei/extra/build/build_script/kirin_kernel_release/kernel/include/asm-generic/percpu.h"
	.file 127 "/cloud/jenkins/workspace/950_chipset_0425_component/opensource/component_code/vendor/huawei/extra/build/build_script/kirin_kernel_release/kernel/include/linux/jump_label.h"
	.file 128 "/cloud/jenkins/workspace/950_chipset_0425_component/opensource/component_code/vendor/huawei/extra/build/build_script/kirin_kernel_release/kernel/include/linux/debug_locks.h"
	.file 129 "/cloud/jenkins/workspace/950_chipset_0425_component/opensource/component_code/vendor/huawei/extra/build/build_script/kirin_kernel_release/kernel/include/asm-generic/pgtable.h"
	.file 130 "/cloud/jenkins/workspace/950_chipset_0425_component/opensource/component_code/vendor/huawei/extra/build/build_script/kirin_kernel_release/kernel/arch/arm64/include/asm/irq.h"
	.file 131 "/cloud/jenkins/workspace/950_chipset_0425_component/opensource/component_code/vendor/huawei/extra/build/build_script/kirin_kernel_release/kernel/arch/arm64/include/asm/hardirq.h"
	.file 132 "/cloud/jenkins/workspace/950_chipset_0425_component/opensource/component_code/vendor/huawei/extra/build/build_script/kirin_kernel_release/kernel/include/linux/slab.h"
	.file 133 "/cloud/jenkins/workspace/950_chipset_0425_component/opensource/component_code/vendor/huawei/extra/build/build_script/kirin_kernel_release/kernel/arch/arm64/include/../../arm/include/asm/xen/hypervisor.h"
	.file 134 "/cloud/jenkins/workspace/950_chipset_0425_component/opensource/component_code/vendor/huawei/extra/build/build_script/kirin_kernel_release/kernel/arch/arm64/include/asm/dma-mapping.h"
	.file 135 "/cloud/jenkins/workspace/950_chipset_0425_component/opensource/component_code/vendor/huawei/extra/build/build_script/kirin_kernel_release/kernel/include/scsi/scsi_common.h"
	.file 136 "/cloud/jenkins/workspace/950_chipset_0425_component/opensource/component_code/vendor/huawei/extra/build/build_script/kirin_kernel_release/kernel/include/linux/stddef.h"
	.section	.note.GNU-stack,"",%progbits
