	.cpu generic+fp+simd
	.file	"hisi_freq_ctl.c"
	.text
.Ltext0:
	.cfi_sections	.debug_frame
#APP
	.irp	num,0,1,2,3,4,5,6,7,8,9,10,11,12,13,14,15,16,17,18,19,20,21,22,23,24,25,26,27,28,29,30
	.equ	.L__reg_num_x\num, \num
	.endr
	.equ	.L__reg_num_xzr, 31

	.macro	mrs_s, rt, sreg
	.inst	0xd5200000|(\sreg)|(.L__reg_num_\rt)
	.endm

	.macro	msr_s, sreg, rt
	.inst	0xd5000000|(\sreg)|(.L__reg_num_\rt)
	.endm

#NO_APP
	.align	2
	.type	delete_freq_req_work, %function
delete_freq_req_work:
.LFB2216:
	.file 1 "/cloud/jenkins/workspace/950_chipset_0425_component/opensource/component_code/vendor/huawei/extra/build/build_script/kirin_kernel_release/kernel/block/hisi_freq_ctl.c"
	.loc 1 243 0
	.cfi_startproc
.LVL0:
	stp	x29, x30, [sp, -32]!
	.cfi_def_cfa_offset 32
	.cfi_offset 29, -32
	.cfi_offset 30, -24
	add	x29, sp, 0
	.cfi_def_cfa_register 29
	str	x19, [sp,16]
	.cfi_offset 19, -16
	.loc 1 244 0
	adrp	x19, .LANCHOR0
	ldr	x0, [x19,#:lo12:.LANCHOR0]
.LVL1:
	cbz	x0, .L1
	.loc 1 244 0 is_stmt 0 discriminator 1
	ldr	x1, [x0,88]
	cbz	x1, .L1
	.loc 1 248 0 is_stmt 1
	ldr	x1, [x0,224]
	ldr	x1, [x1,8]
	cbz	x1, .L3
	.loc 1 248 0 is_stmt 0 discriminator 1
	ldr	x1, [x0,64]
	cbz	x1, .L1
.L3:
	.loc 1 253 0 is_stmt 1
	add	x0, x0, 8
	bl	mutex_lock
.LVL2:
	.loc 1 254 0
	ldr	x0, [x19,#:lo12:.LANCHOR0]
	.loc 1 255 0
	ldr	x1, [x0,224]
	.loc 1 254 0
	str	wzr, [x0,56]
	.loc 1 255 0
	ldr	x2, [x1,16]
	cbz	x2, .L4
	.loc 1 256 0
	ldr	x0, [x0,64]
	blr	x2
.LVL3:
	adrp	x0, .LANCHOR0
	ldr	x0, [x0,#:lo12:.LANCHOR0]
	ldr	x1, [x0,224]
.L4:
	.loc 1 258 0
	ldr	x1, [x1,32]
	cbz	x1, .L5
	.loc 1 259 0
	blr	x1
.LVL4:
	ldr	x0, [x19,#:lo12:.LANCHOR0]
.L5:
	.loc 1 260 0
	str	wzr, [x0,72]
	.loc 1 261 0
	add	x0, x0, 8
	bl	mutex_unlock
.LVL5:
.L1:
	.loc 1 263 0
	ldr	x19, [sp,16]
	.cfi_restore 19
	ldp	x29, x30, [sp], 32
	.cfi_restore 30
	.cfi_restore 29
	.cfi_def_cfa 31, 0
	ret
	.cfi_endproc
.LFE2216:
	.size	delete_freq_req_work, .-delete_freq_req_work
	.align	2
	.type	hisi_blk_freq_ctrl_work, %function
hisi_blk_freq_ctrl_work:
.LFB2217:
	.loc 1 266 0
	.cfi_startproc
.LVL6:
	stp	x29, x30, [sp, -64]!
	.cfi_def_cfa_offset 64
	.cfi_offset 29, -64
	.cfi_offset 30, -56
	add	x29, sp, 0
	.cfi_def_cfa_register 29
	stp	x19, x20, [sp,16]
	.cfi_offset 19, -48
	.cfi_offset 20, -40
	.loc 1 271 0
	adrp	x20, .LANCHOR0
	.loc 1 266 0
	str	x23, [sp,48]
	stp	x21, x22, [sp,32]
	.cfi_offset 23, -16
	.cfi_offset 21, -32
	.cfi_offset 22, -24
	.loc 1 271 0
	ldr	x0, [x20,#:lo12:.LANCHOR0]
.LVL7:
	cbz	x0, .L25
	.loc 1 271 0 is_stmt 0 discriminator 1
	ldr	x1, [x0,88]
	cbz	x1, .L25
	.loc 1 274 0 is_stmt 1
	ldr	x1, [x0,224]
	ldr	x1, [x1,8]
	cbz	x1, .L27
	.loc 1 274 0 is_stmt 0 discriminator 1
	ldr	x1, [x0,64]
	cbz	x1, .L25
.L27:
	.loc 1 278 0 is_stmt 1 discriminator 1
	bl	_raw_spin_lock_irqsave
.LVL8:
.LBB138:
.LBB139:
	.file 2 "/cloud/jenkins/workspace/950_chipset_0425_component/opensource/component_code/vendor/huawei/extra/build/build_script/kirin_kernel_release/kernel/include/linux/spinlock.h"
	.loc 2 362 0
	mov	x1, x0
.LBE139:
.LBE138:
	.loc 1 279 0
	ldr	x2, [x20,#:lo12:.LANCHOR0]
	adrp	x22, .LANCHOR0
.LBB142:
.LBB140:
	.loc 2 362 0
	mov	x0, x2
.LVL9:
.LBE140:
.LBE142:
	.loc 1 279 0
	ldr	w21, [x2,232]
	.loc 1 280 0
	ldr	w23, [x2,236]
.LBB143:
.LBB141:
	.loc 2 362 0
	bl	_raw_spin_unlock_irqrestore
.LVL10:
.LBE141:
.LBE143:
	.loc 1 283 0
	ldr	x0, [x20,#:lo12:.LANCHOR0]
	add	x0, x0, 8
	bl	mutex_lock
.LVL11:
	.loc 1 285 0
	ldr	x19, [x20,#:lo12:.LANCHOR0]
	ldr	w0, [x19,56]
	cmp	w0, 1
	beq	.L66
.LVL12:
	.loc 1 293 0
	cmp	w21, 1
	beq	.L31
.L40:
	.loc 1 333 0
	cbnz	w0, .L37
	.loc 1 339 0
	ldr	w0, [x19,76]
.LVL13:
	cmp	w23, w0
	blt	.L38
	.loc 1 340 0
	str	wzr, [x19,76]
.L33:
	.loc 1 360 0
	add	x0, x19, 8
	bl	mutex_unlock
.LVL14:
.L25:
	.loc 1 362 0
	ldp	x19, x20, [sp,16]
	.cfi_remember_state
	.cfi_restore 20
	.cfi_restore 19
	ldp	x21, x22, [sp,32]
	.cfi_restore 22
	.cfi_restore 21
.LVL15:
	ldr	x23, [sp,48]
	.cfi_restore 23
.LVL16:
	ldp	x29, x30, [sp], 64
	.cfi_restore 30
	.cfi_restore 29
	.cfi_def_cfa 31, 0
	ret
.L66:
	.cfi_restore_state
	.loc 1 286 0
	ldr	x0, [x19,224]
	ldr	x2, [x0]
	cbnz	x2, .L67
.LVL17:
	.loc 1 293 0
	cmp	w21, 1
	beq	.L39
.L37:
	.loc 1 350 0
	ldr	w0, [x19,72]
	cbnz	w0, .L33
	.loc 1 351 0
	mov	w3, 1
.LBB144:
.LBB145:
	.file 3 "/cloud/jenkins/workspace/950_chipset_0425_component/opensource/component_code/vendor/huawei/extra/build/build_script/kirin_kernel_release/kernel/include/linux/workqueue.h"
	.loc 3 487 0
	ldr	x1, [x19,88]
.LBE145:
.LBE144:
	.loc 1 351 0
	str	w3, [x19,72]
.LBB147:
.LBB146:
	.loc 3 487 0
	add	x2, x19, 128
	mov	w0, 8
	mov	x3, 35
	bl	queue_delayed_work_on
.LVL18:
.L65:
	ldr	x19, [x20,#:lo12:.LANCHOR0]
.LBE146:
.LBE147:
	.loc 1 360 0
	add	x0, x19, 8
	bl	mutex_unlock
.LVL19:
	b	.L25
.LVL20:
.L67:
	.loc 1 288 0
	ldr	w0, [x19,80]
	ldr	x1, [x19,64]
	blr	x2
.LVL21:
	.loc 1 287 0
	str	w0, [x19,80]
	.loc 1 294 0
	ldr	x19, [x22,#:lo12:.LANCHOR0]
.LVL22:
	.loc 1 293 0
	cmp	w21, 1
	.loc 1 294 0
	ldr	w0, [x19,56]
	.loc 1 293 0
	bne	.L40
	.loc 1 294 0
	cmp	w0, 1
	beq	.L39
.L31:
	.loc 1 316 0
	ldr	w0, [x19,76]
.LVL23:
	add	w23, w23, w0
.LVL24:
	str	w23, [x19,76]
	.loc 1 318 0
	cmp	w23, 99
	ble	.L65
	.loc 1 320 0
	ldr	x0, [x19,224]
	ldr	x1, [x0,8]
	cbz	x1, .L35
	.loc 1 322 0
	ldr	x0, [x19,64]
	blr	x1
.LVL25:
	.loc 1 321 0
	str	w0, [x19,80]
.L35:
	.loc 1 324 0
	ldr	x19, [x20,#:lo12:.LANCHOR0]
	ldr	x0, [x19,224]
	ldr	x0, [x0,24]
	cbz	x0, .L36
	.loc 1 325 0
	blr	x0
.LVL26:
	adrp	x0, .LANCHOR0
	ldr	x19, [x0,#:lo12:.LANCHOR0]
.L36:
	.loc 1 328 0
	mov	w0, 1
	.loc 1 329 0
	str	wzr, [x19,76]
	.loc 1 328 0
	str	w0, [x19,56]
	b	.L33
.LVL27:
.L38:
	.loc 1 342 0
	sub	w0, w0, w23
	str	w0, [x19,76]
	.loc 1 360 0
	add	x0, x19, 8
	bl	mutex_unlock
.LVL28:
	b	.L25
.LVL29:
.L39:
	.loc 1 301 0
	ldr	w0, [x19,72]
	cbz	w0, .L65
	.loc 1 302 0
	add	x0, x19, 8
	bl	mutex_unlock
.LVL30:
	.loc 1 303 0
	ldr	x0, [x20,#:lo12:.LANCHOR0]
	add	x0, x0, 128
	bl	cancel_delayed_work_sync
.LVL31:
	.loc 1 305 0
	ldr	x0, [x20,#:lo12:.LANCHOR0]
	add	x0, x0, 8
	bl	mutex_lock
.LVL32:
	.loc 1 306 0
	ldr	x19, [x20,#:lo12:.LANCHOR0]
	str	wzr, [x19,72]
	b	.L33
	.cfi_endproc
.LFE2217:
	.size	hisi_blk_freq_ctrl_work, .-hisi_blk_freq_ctrl_work
	.align	2
	.type	ddr_qos_remove_request, %function
ddr_qos_remove_request:
.LFB2211:
	.loc 1 94 0
	.cfi_startproc
.LVL33:
	stp	x29, x30, [sp, -32]!
	.cfi_def_cfa_offset 32
	.cfi_offset 29, -32
	.cfi_offset 30, -24
	add	x29, sp, 0
	.cfi_def_cfa_register 29
	str	x19, [sp,16]
	.cfi_offset 19, -16
	.loc 1 94 0
	mov	x19, x0
	.loc 1 95 0
	bl	get_bootdevice_type
.LVL34:
	cbnz	w0, .L73
.L68:
	.loc 1 99 0
	ldr	x19, [sp,16]
	.cfi_remember_state
	.cfi_restore 19
.LVL35:
	ldp	x29, x30, [sp], 32
	.cfi_restore 30
	.cfi_restore 29
	.cfi_def_cfa 31, 0
	ret
.LVL36:
.L73:
	.cfi_restore_state
.LBB150:
.LBB151:
	.loc 1 97 0
	mov	x0, x19
	bl	pm_qos_remove_request
.LVL37:
	.loc 1 98 0
	adrp	x0, .LC0
	adrp	x1, .LANCHOR1
	add	x1, x1, :lo12:.LANCHOR1
	add	x0, x0, :lo12:.LC0
	bl	printk
.LVL38:
	b	.L68
.LBE151:
.LBE150:
	.cfi_endproc
.LFE2211:
	.size	ddr_qos_remove_request, .-ddr_qos_remove_request
	.align	2
	.type	ddr_qos_add_request, %function
ddr_qos_add_request:
.LFB2210:
	.loc 1 69 0
	.cfi_startproc
.LVL39:
	stp	x29, x30, [sp, -48]!
	.cfi_def_cfa_offset 48
	.cfi_offset 29, -48
	.cfi_offset 30, -40
	add	x29, sp, 0
	.cfi_def_cfa_register 29
	stp	x19, x20, [sp,16]
	.cfi_offset 19, -32
	.cfi_offset 20, -24
	.loc 1 69 0
	mov	x20, x0
	.loc 1 73 0
	bl	get_bootdevice_type
.LVL40:
	.loc 1 74 0
	mov	w1, 0
	.loc 1 73 0
	cbnz	w0, .L80
.LVL41:
.L75:
	.loc 1 90 0
	ldp	x19, x20, [sp,16]
	.cfi_remember_state
	.cfi_restore 20
	.cfi_restore 19
.LVL42:
	mov	w0, w1
	ldp	x29, x30, [sp], 48
	.cfi_restore 30
	.cfi_restore 29
	.cfi_def_cfa 31, 0
	ret
.LVL43:
.L80:
	.cfi_restore_state
.LBB154:
.LBB155:
	.loc 1 76 0
	str	wzr, [x20,40]
	.loc 1 78 0
	mov	w0, 6
	.loc 1 80 0
	mov	w19, 0
.LVL44:
	.loc 1 78 0
	bl	pm_qos_request
.LVL45:
	.loc 1 79 0
	cmp	w0, 3841
	.loc 1 78 0
	mov	w3, w0
.LVL46:
	.loc 1 79 0
	bgt	.L76
	.loc 1 82 0
	mov	w19, 3841
.LVL47:
	sub	w19, w19, w0
.LVL48:
.L76:
	.loc 1 83 0
	mov	x0, x20
	mov	w1, 6
	mov	w2, w19
	str	x3, [x29,40]
	bl	pm_qos_add_request
.LVL49:
	.loc 1 86 0
	adrp	x1, .LANCHOR1
	adrp	x0, .LC1
	add	x1, x1, :lo12:.LANCHOR1
	ldr	x3, [x29,40]
.LVL50:
	add	x1, x1, 24
	add	x0, x0, :lo12:.LC1
	mov	w2, w19
	bl	printk
.LVL51:
	mov	w1, w19
	b	.L75
.LBE155:
.LBE154:
	.cfi_endproc
.LFE2210:
	.size	ddr_qos_add_request, .-ddr_qos_add_request
	.align	2
	.type	ddr_qos_update_request, %function
ddr_qos_update_request:
.LFB2209:
	.loc 1 42 0
	.cfi_startproc
.LVL52:
	stp	x29, x30, [sp, -48]!
	.cfi_def_cfa_offset 48
	.cfi_offset 29, -48
	.cfi_offset 30, -40
	add	x29, sp, 0
	.cfi_def_cfa_register 29
	stp	x19, x20, [sp,16]
	str	x21, [sp,32]
	.cfi_offset 19, -32
	.cfi_offset 20, -24
	.cfi_offset 21, -16
	.loc 1 42 0
	mov	w20, w0
	mov	x21, x1
	.loc 1 46 0
	bl	get_bootdevice_type
.LVL53:
	.loc 1 47 0
	mov	w2, 0
	.loc 1 46 0
	cbnz	w0, .L89
.LVL54:
.L82:
	.loc 1 66 0
	mov	w0, w2
.LVL55:
	ldr	x21, [sp,32]
	.cfi_remember_state
	.cfi_restore 21
.LVL56:
	ldp	x19, x20, [sp,16]
	.cfi_restore 20
	.cfi_restore 19
.LVL57:
	ldp	x29, x30, [sp], 48
	.cfi_restore 30
	.cfi_restore 29
	.cfi_def_cfa 31, 0
	ret
.LVL58:
.L89:
	.cfi_restore_state
.LBB158:
.LBB159:
	.loc 1 51 0
	mov	w0, 6
	bl	pm_qos_request
.LVL59:
	.loc 1 53 0
	cmp	w0, 3840
	ble	.L90
	.loc 1 55 0
	mov	w1, 7682
	mov	w2, w20
	cmp	w0, w1
	ble	.L82
	.loc 1 56 0
	mov	w19, 0
.LVL60:
.L84:
	.loc 1 58 0
	cmp	w20, w19
	beq	.L87
	.loc 1 60 0
	mov	x0, x21
.LVL61:
	mov	w1, w19
	bl	pm_qos_update_request
.LVL62:
.LBE159:
.LBE158:
	.loc 1 66 0
	ldr	x21, [sp,32]
	.cfi_remember_state
	.cfi_restore 21
.LVL63:
.LBB162:
.LBB160:
	.loc 1 60 0
	mov	w2, w19
.LBE160:
.LBE162:
	.loc 1 66 0
	mov	w0, w2
	ldp	x19, x20, [sp,16]
	.cfi_restore 19
	.cfi_restore 20
.LVL64:
	ldp	x29, x30, [sp], 48
	.cfi_restore 29
	.cfi_restore 30
	.cfi_def_cfa 31, 0
	ret
.LVL65:
.L90:
	.cfi_restore_state
.LBB163:
.LBB161:
	.loc 1 54 0
	sub	w0, w20, w0
.LVL66:
	add	w19, w0, 3841
.LVL67:
	b	.L84
.LVL68:
.L87:
	.loc 1 58 0
	mov	w2, w20
	b	.L82
.LBE161:
.LBE163:
	.cfi_endproc
.LFE2209:
	.size	ddr_qos_update_request, .-ddr_qos_update_request
	.align	2
	.type	cpu_freq_request_add, %function
cpu_freq_request_add:
.LFB2214:
	.loc 1 175 0
	.cfi_startproc
	stp	x29, x30, [sp, -32]!
	.cfi_def_cfa_offset 32
	.cfi_offset 29, -32
	.cfi_offset 30, -24
.LBB168:
.LBB169:
	.loc 1 106 0
	adrp	x0, .LC2
	mov	w1, 1
.LBE169:
.LBE168:
	.loc 1 175 0
	add	x29, sp, 0
	.cfi_def_cfa_register 29
.LBB174:
.LBB170:
	.loc 1 106 0
	add	x0, x0, :lo12:.LC2
	mov	w2, 432
.LBE170:
.LBE174:
	.loc 1 175 0
	str	x19, [sp,16]
	.cfi_offset 19, -16
.LBB175:
.LBB171:
	.loc 1 106 0
	bl	sys_open
.LVL69:
	mov	x19, x0
	.loc 1 108 0
	tbnz	x19, #63, .L106
	.loc 1 122 0
	adrp	x1, .LC4
	mov	x2, 1
	mov	w0, w19
	add	x1, x1, :lo12:.LC4
	bl	sys_write
.LVL70:
	mov	x2, x0
	.loc 1 123 0
	tbnz	x2, #63, .L107
.L94:
	.loc 1 131 0
	mov	w0, w19
	bl	sys_close
.LVL71:
.L93:
.LBE171:
.LBE175:
	.loc 1 180 0
	bl	get_bootdevice_type
.LVL72:
	cbnz	w0, .L108
.L91:
	.loc 1 186 0
	ldr	x19, [sp,16]
	.cfi_remember_state
	.cfi_restore 19
	ldp	x29, x30, [sp], 32
	.cfi_restore 30
	.cfi_restore 29
	.cfi_def_cfa 31, 0
	ret
.L106:
	.cfi_restore_state
.LBB176:
.LBB172:
	.loc 1 116 0
	cmn	x19, #2
	beq	.L93
	.loc 1 117 0
	adrp	x1, .LANCHOR1
	adrp	x0, .LC3
	add	x1, x1, :lo12:.LANCHOR1
	mov	x2, x19
	add	x1, x1, 48
	add	x0, x0, :lo12:.LC3
	bl	printk
.LVL73:
	b	.L93
.L108:
.LBE172:
.LBE176:
.LBB177:
.LBB178:
	.loc 1 106 0
	adrp	x0, .LC6
	mov	w1, 1
	add	x0, x0, :lo12:.LC6
	mov	w2, 432
	bl	sys_open
.LVL74:
	mov	x19, x0
	.loc 1 108 0
	tbnz	x19, #63, .L109
	.loc 1 122 0
	adrp	x1, .LC4
	mov	x2, 1
	mov	w0, w19
	add	x1, x1, :lo12:.LC4
	bl	sys_write
.LVL75:
	mov	x2, x0
	.loc 1 123 0
	tbnz	x2, #63, .L110
.L99:
	.loc 1 131 0
	mov	w0, w19
	bl	sys_close
.LVL76:
.LBE178:
.LBE177:
	.loc 1 186 0
	ldr	x19, [sp,16]
	.cfi_remember_state
	.cfi_restore 19
	ldp	x29, x30, [sp], 32
	.cfi_restore 29
	.cfi_restore 30
	.cfi_def_cfa 31, 0
	ret
.L109:
	.cfi_restore_state
.LBB181:
.LBB179:
	.loc 1 116 0
	cmn	x19, #2
	beq	.L91
	.loc 1 117 0
	adrp	x1, .LANCHOR1
	adrp	x0, .LC3
	add	x1, x1, :lo12:.LANCHOR1
	mov	x2, x19
	add	x1, x1, 48
	add	x0, x0, :lo12:.LC3
	bl	printk
.LVL77:
	b	.L91
.L107:
.LBE179:
.LBE181:
.LBB182:
.LBB173:
	.loc 1 125 0
	adrp	x1, .LANCHOR1
	adrp	x0, .LC5
	add	x1, x1, :lo12:.LANCHOR1
	add	x0, x0, :lo12:.LC5
	add	x1, x1, 48
	bl	printk
.LVL78:
	b	.L94
.L110:
.LBE173:
.LBE182:
.LBB183:
.LBB180:
	adrp	x1, .LANCHOR1
	adrp	x0, .LC5
	add	x1, x1, :lo12:.LANCHOR1
	add	x0, x0, :lo12:.LC5
	add	x1, x1, 48
	bl	printk
.LVL79:
	b	.L99
.LBE180:
.LBE183:
	.cfi_endproc
.LFE2214:
	.size	cpu_freq_request_add, .-cpu_freq_request_add
	.align	2
	.type	cpu_freq_request_remove, %function
cpu_freq_request_remove:
.LFB2215:
	.loc 1 193 0
	.cfi_startproc
	stp	x29, x30, [sp, -32]!
	.cfi_def_cfa_offset 32
	.cfi_offset 29, -32
	.cfi_offset 30, -24
.LBB188:
.LBB189:
	.loc 1 141 0
	adrp	x0, .LC2
	mov	w1, 1
.LBE189:
.LBE188:
	.loc 1 193 0
	add	x29, sp, 0
	.cfi_def_cfa_register 29
.LBB194:
.LBB190:
	.loc 1 141 0
	add	x0, x0, :lo12:.LC2
	mov	w2, 432
.LBE190:
.LBE194:
	.loc 1 193 0
	str	x19, [sp,16]
	.cfi_offset 19, -16
.LBB195:
.LBB191:
	.loc 1 141 0
	bl	sys_open
.LVL80:
	mov	x19, x0
	.loc 1 143 0
	tbnz	x19, #63, .L126
	.loc 1 157 0
	adrp	x1, .LC7
	mov	x2, 1
	mov	w0, w19
	add	x1, x1, :lo12:.LC7
	bl	sys_write
.LVL81:
	mov	x2, x0
	.loc 1 158 0
	tbnz	x2, #63, .L127
.L114:
	.loc 1 166 0
	mov	w0, w19
	bl	sys_close
.LVL82:
.L113:
.LBE191:
.LBE195:
	.loc 1 198 0
	bl	get_bootdevice_type
.LVL83:
	cbnz	w0, .L128
.L111:
	.loc 1 204 0
	ldr	x19, [sp,16]
	.cfi_remember_state
	.cfi_restore 19
	ldp	x29, x30, [sp], 32
	.cfi_restore 30
	.cfi_restore 29
	.cfi_def_cfa 31, 0
	ret
.L126:
	.cfi_restore_state
.LBB196:
.LBB192:
	.loc 1 151 0
	cmn	x19, #2
	beq	.L113
	.loc 1 152 0
	adrp	x1, .LANCHOR1
	adrp	x0, .LC3
	add	x1, x1, :lo12:.LANCHOR1
	mov	x2, x19
	add	x1, x1, 64
	add	x0, x0, :lo12:.LC3
	bl	printk
.LVL84:
	b	.L113
.L128:
.LBE192:
.LBE196:
.LBB197:
.LBB198:
	.loc 1 141 0
	adrp	x0, .LC6
	mov	w1, 1
	add	x0, x0, :lo12:.LC6
	mov	w2, 432
	bl	sys_open
.LVL85:
	mov	x19, x0
	.loc 1 143 0
	tbnz	x19, #63, .L129
	.loc 1 157 0
	adrp	x1, .LC7
	mov	x2, 1
	mov	w0, w19
	add	x1, x1, :lo12:.LC7
	bl	sys_write
.LVL86:
	mov	x2, x0
	.loc 1 158 0
	tbnz	x2, #63, .L130
.L119:
	.loc 1 166 0
	mov	w0, w19
	bl	sys_close
.LVL87:
.LBE198:
.LBE197:
	.loc 1 204 0
	ldr	x19, [sp,16]
	.cfi_remember_state
	.cfi_restore 19
	ldp	x29, x30, [sp], 32
	.cfi_restore 29
	.cfi_restore 30
	.cfi_def_cfa 31, 0
	ret
.L129:
	.cfi_restore_state
.LBB201:
.LBB199:
	.loc 1 151 0
	cmn	x19, #2
	beq	.L111
	.loc 1 152 0
	adrp	x1, .LANCHOR1
	adrp	x0, .LC3
	add	x1, x1, :lo12:.LANCHOR1
	mov	x2, x19
	add	x1, x1, 64
	add	x0, x0, :lo12:.LC3
	bl	printk
.LVL88:
	b	.L111
.L127:
.LBE199:
.LBE201:
.LBB202:
.LBB193:
	.loc 1 160 0
	adrp	x1, .LANCHOR1
	adrp	x0, .LC5
	add	x1, x1, :lo12:.LANCHOR1
	add	x0, x0, :lo12:.LC5
	add	x1, x1, 64
	bl	printk
.LVL89:
	b	.L114
.L130:
.LBE193:
.LBE202:
.LBB203:
.LBB200:
	adrp	x1, .LANCHOR1
	adrp	x0, .LC5
	add	x1, x1, :lo12:.LANCHOR1
	add	x0, x0, :lo12:.LC5
	add	x1, x1, 64
	bl	printk
.LVL90:
	b	.L119
.LBE200:
.LBE203:
	.cfi_endproc
.LFE2215:
	.size	cpu_freq_request_remove, .-cpu_freq_request_remove
	.align	2
	.global	hisi_blk_freq_request
	.type	hisi_blk_freq_request, %function
hisi_blk_freq_request:
.LFB2218:
	.loc 1 365 0
	.cfi_startproc
.LVL91:
	stp	x29, x30, [sp, -48]!
	.cfi_def_cfa_offset 48
	.cfi_offset 29, -48
	.cfi_offset 30, -40
	add	x29, sp, 0
	.cfi_def_cfa_register 29
	stp	x19, x20, [sp,16]
	.cfi_offset 19, -32
	.cfi_offset 20, -24
	.loc 1 367 0
	adrp	x19, .LANCHOR0
	.loc 1 365 0
	str	x21, [sp,32]
	.cfi_offset 21, -16
	.loc 1 367 0
	ldr	x2, [x19,#:lo12:.LANCHOR0]
	cbz	x2, .L131
	.loc 1 367 0 is_stmt 0 discriminator 1
	ldr	x3, [x2,88]
	cbz	x3, .L131
	.loc 1 371 0 is_stmt 1
	ldr	x3, [x2,224]
	ldr	x3, [x3,8]
	cbz	x3, .L133
	.loc 1 371 0 is_stmt 0 discriminator 1
	ldr	x3, [x2,64]
	cbz	x3, .L131
.L133:
	mov	w21, w0
	.loc 1 375 0 is_stmt 1 discriminator 1
	mov	x0, x2
.LVL92:
	mov	w20, w1
	bl	_raw_spin_lock_irqsave
.LVL93:
.LBB204:
.LBB205:
	.loc 2 362 0
	mov	x1, x0
.LBE205:
.LBE204:
	.loc 1 376 0
	ldr	x2, [x19,#:lo12:.LANCHOR0]
.LBB208:
.LBB206:
	.loc 2 362 0
	mov	x0, x2
.LVL94:
.LBE206:
.LBE208:
	.loc 1 376 0
	str	w21, [x2,232]
	.loc 1 377 0
	str	w20, [x2,236]
.LBB209:
.LBB207:
	.loc 2 362 0
	bl	_raw_spin_unlock_irqrestore
.LVL95:
.LBE207:
.LBE209:
	.loc 1 380 0
	ldr	x1, [x19,#:lo12:.LANCHOR0]
.LBB210:
.LBB211:
	.loc 3 472 0
	mov	w0, 8
	add	x2, x1, 96
	ldr	x1, [x1,88]
	bl	queue_work_on
.LVL96:
.L131:
.LBE211:
.LBE210:
	.loc 1 382 0
	ldp	x19, x20, [sp,16]
	.cfi_restore 20
	.cfi_restore 19
	ldr	x21, [sp,32]
	.cfi_restore 21
	ldp	x29, x30, [sp], 48
	.cfi_restore 30
	.cfi_restore 29
	.cfi_def_cfa 31, 0
	ret
	.cfi_endproc
.LFE2218:
	.size	hisi_blk_freq_request, .-hisi_blk_freq_request
	.align	2
	.global	hisi_blk_freq_ctrl_init
	.type	hisi_blk_freq_ctrl_init, %function
hisi_blk_freq_ctrl_init:
.LFB2219:
	.loc 1 385 0
	.cfi_startproc
	stp	x29, x30, [sp, -48]!
	.cfi_def_cfa_offset 48
	.cfi_offset 29, -48
	.cfi_offset 30, -40
	add	x29, sp, 0
	.cfi_def_cfa_register 29
	stp	x19, x20, [sp,16]
	.cfi_offset 19, -32
	.cfi_offset 20, -24
	.loc 1 387 0
	adrp	x20, .LANCHOR0
	.loc 1 385 0
	str	x21, [sp,32]
	.cfi_offset 21, -16
	.loc 1 387 0
	add	x21, x20, :lo12:.LANCHOR0
	ldr	x19, [x20,#:lo12:.LANCHOR0]
	cbz	x19, .L157
.L147:
	.loc 1 405 0
	adrp	x0, .LANCHOR2
	add	x0, x0, :lo12:.LANCHOR2
	str	x0, [x19,224]
	.loc 1 407 0
	ldr	x0, [x0,8]
	cbz	x0, .L150
	.loc 1 408 0
	ldr	x0, [x19,64]
	cbz	x0, .L158
.L150:
	.loc 1 418 0
	ldr	x0, [x19,88]
	cbz	x0, .L159
.L149:
.L146:
	.loc 1 443 0
	ldp	x19, x20, [sp,16]
	.cfi_remember_state
	.cfi_restore 20
	.cfi_restore 19
	ldr	x21, [sp,32]
	.cfi_restore 21
	ldp	x29, x30, [sp], 48
	.cfi_restore 30
	.cfi_restore 29
	.cfi_def_cfa 31, 0
	ret
.L159:
	.cfi_restore_state
	.loc 1 420 0
	mov	w1, 10
	adrp	x0, .LC13
	adrp	x5, .LC14
	mov	w2, 1
	movk	w1, 0x2, lsl 16
	add	x0, x0, :lo12:.LC13
	mov	x3, 0
	mov	x4, 0
	add	x5, x5, :lo12:.LC14
	.loc 1 421 0
	adrp	x21, .LANCHOR0
	.loc 1 420 0
	bl	__alloc_workqueue_key
.LVL97:
	.loc 1 419 0
	str	x0, [x19,88]
	.loc 1 421 0
	ldr	x2, [x20,#:lo12:.LANCHOR0]
	ldr	x0, [x2,88]
	cbz	x0, .L160
	.loc 1 425 0
	add	x0, x2, 104
	.loc 1 426 0
	add	x1, x2, 136
.LBB212:
.LBB213:
	.file 4 "/cloud/jenkins/workspace/950_chipset_0425_component/opensource/component_code/vendor/huawei/extra/build/build_script/kirin_kernel_release/kernel/include/linux/list.h"
	.loc 4 27 0
	str	x0, [x2,104]
.LBE213:
.LBE212:
	.loc 1 425 0
	mov	x3, 68719476704
	str	x3, [x2,96]
.LBB215:
.LBB214:
	.loc 4 28 0
	str	x0, [x0,8]
.LBE214:
.LBE215:
	.loc 1 425 0
	adrp	x0, hisi_blk_freq_ctrl_work
	.loc 1 426 0
	str	x3, [x2,128]
	.loc 1 425 0
	add	x0, x0, :lo12:hisi_blk_freq_ctrl_work
.LBB216:
.LBB217:
	.loc 4 27 0
	str	x1, [x2,136]
.LBE217:
.LBE216:
	.loc 1 426 0
	adrp	x3, delete_freq_req_work
	.loc 1 425 0
	str	x0, [x2,120]
	.loc 1 426 0
	add	x3, x3, :lo12:delete_freq_req_work
.LBB219:
.LBB218:
	.loc 4 28 0
	str	x1, [x1,8]
.LBE218:
.LBE219:
	.loc 1 426 0 discriminator 2
	add	x0, x2, 160
	.loc 1 426 0 is_stmt 0
	str	x3, [x2,152]
	.loc 1 426 0 discriminator 2
	mov	w1, 2097152
	mov	x2, 0
	mov	x3, 0
	bl	init_timer_key
.LVL98:
	.loc 1 426 0
	ldr	x0, [x21,#:lo12:.LANCHOR0]
	adrp	x1, delayed_work_timer_fn
	add	x1, x1, :lo12:delayed_work_timer_fn
	add	x2, x0, 128
	str	x1, [x0,184]
	str	x2, [x0,192]
	b	.L146
.L157:
.LBB220:
.LBB221:
.LBB222:
	.file 5 "/cloud/jenkins/workspace/950_chipset_0425_component/opensource/component_code/vendor/huawei/extra/build/build_script/kirin_kernel_release/kernel/include/linux/slab.h"
	.loc 5 470 0 is_stmt 1
	adrp	x0, kmalloc_caches+64
	mov	w1, 32960
	movk	w1, 0x240, lsl 16
	mov	x2, 240
	ldr	x0, [x0,#:lo12:kmalloc_caches+64]
	bl	kmem_cache_alloc_trace
.LVL99:
.LBE222:
.LBE221:
.LBE220:
	.loc 1 388 0
	str	x0, [x20,#:lo12:.LANCHOR0]
	.loc 1 389 0
	cbnz	x0, .L148
	.loc 1 390 0
	adrp	x1, .LANCHOR1
	adrp	x0, .LC8
	add	x1, x1, :lo12:.LANCHOR1
	add	x0, x0, :lo12:.LC8
	add	x1, x1, 88
	bl	printk
.LVL100:
	.loc 1 391 0
	b	.L146
.L158:
.LBB223:
.LBB224:
	.loc 5 470 0
	adrp	x0, kmalloc_caches+16
	mov	w1, 192
	movk	w1, 0x240, lsl 16
	mov	x2, 144
	ldr	x0, [x0,#:lo12:kmalloc_caches+16]
	bl	kmem_cache_alloc_trace
.LVL101:
.LBE224:
.LBE223:
	.loc 1 409 0
	str	x0, [x19,64]
	.loc 1 411 0
	ldr	x19, [x20,#:lo12:.LANCHOR0]
	ldr	x0, [x19,64]
	cbnz	x0, .L150
	.loc 1 412 0
	adrp	x1, .LANCHOR1
	adrp	x0, .LC12
	add	x1, x1, :lo12:.LANCHOR1
	add	x0, x0, :lo12:.LC12
	add	x1, x1, 88
	bl	printk
.LVL102:
	.loc 1 413 0
	b	.L151
.L160:
	.loc 1 422 0
	adrp	x1, .LANCHOR1
	adrp	x0, .LC15
	add	x1, x1, :lo12:.LANCHOR1
	add	x0, x0, :lo12:.LC15
	add	x1, x1, 88
	bl	printk
.LVL103:
	.loc 1 431 0
	ldr	x0, [x21,#:lo12:.LANCHOR0]
	ldr	x0, [x0,64]
	cbz	x0, .L151
	.loc 1 432 0
	bl	kfree
.LVL104:
	.loc 1 433 0
	ldr	x0, [x21,#:lo12:.LANCHOR0]
	str	xzr, [x0,64]
.L151:
	.loc 1 437 0
	ldr	x0, [x20,#:lo12:.LANCHOR0]
	bl	kfree
.LVL105:
	.loc 1 438 0
	str	xzr, [x20,#:lo12:.LANCHOR0]
	b	.L146
.L148:
	.loc 1 393 0
	adrp	x19, .LANCHOR1
	adrp	x0, .LC9
	add	x19, x19, :lo12:.LANCHOR1
	mov	w2, 100
	add	x19, x19, 88
	mov	w3, 350
	mov	x1, x19
	add	x0, x0, :lo12:.LC9
	bl	printk
.LVL106:
	.loc 1 397 0
	adrp	x0, .LC10
	mov	x1, x19
	mov	w2, 3841
	mov	w3, 7682
	add	x0, x0, :lo12:.LC10
	bl	printk
.LVL107:
	.loc 1 401 0
	ldr	x3, [x20,#:lo12:.LANCHOR0]
.LBB225:
	.loc 1 402 0
	adrp	x1, .LC11
	add	x2, x21, 8
	add	x1, x1, :lo12:.LC11
	add	x0, x3, 8
.LBE225:
	.loc 1 401 0
	strh	wzr, [x3]
	strh	wzr, [x3,2]
.LBB226:
	.loc 1 402 0
	bl	__mutex_init
.LVL108:
	ldr	x19, [x20,#:lo12:.LANCHOR0]
	b	.L147
.LBE226:
	.cfi_endproc
.LFE2219:
	.size	hisi_blk_freq_ctrl_init, .-hisi_blk_freq_ctrl_init
	.section	.rodata
	.align	3
.LANCHOR1 = . + 0
	.type	__func__.29895, %object
	.size	__func__.29895, 23
__func__.29895:
	.string	"ddr_qos_remove_request"
	.zero	1
	.type	__func__.29891, %object
	.size	__func__.29891, 20
__func__.29891:
	.string	"ddr_qos_add_request"
	.zero	4
	.type	__func__.29902, %object
	.size	__func__.29902, 15
__func__.29902:
	.string	"set_io_is_busy"
	.zero	1
	.type	__func__.29910, %object
	.size	__func__.29910, 17
__func__.29910:
	.string	"clear_io_is_busy"
	.zero	7
	.type	__func__.29971, %object
	.size	__func__.29971, 24
__func__.29971:
	.string	"hisi_blk_freq_ctrl_init"
	.data
	.align	3
.LANCHOR2 = . + 0
	.type	freq_req_ops, %object
	.size	freq_req_ops, 40
freq_req_ops:
	.xword	ddr_qos_update_request
	.xword	ddr_qos_add_request
	.xword	ddr_qos_remove_request
	.xword	cpu_freq_request_add
	.xword	cpu_freq_request_remove
	.section	.rodata.str1.8,"aMS",%progbits,1
	.align	3
.LC0:
	.string	"\0013%s: block ddr freq request remove\n"
	.zero	3
.LC1:
	.string	"\0013%s: block ddr freq request add.request_value = %d, curent ddr band is %d\n"
	.zero	4
.LC2:
	.string	"/sys/devices/system/cpu/cpu0/cpufreq/interactive/io_is_busy"
	.zero	4
.LC3:
	.string	"\0013%s open io_is_busy failed %ld\n"
	.zero	7
.LC4:
	.string	"1"
	.zero	6
.LC5:
	.string	"\0013%s write io_is_busy failed %ld\n"
	.zero	6
.LC6:
	.string	"/sys/devices/system/cpu/cpu4/cpufreq/interactive/io_is_busy"
	.zero	4
.LC7:
	.string	"0"
	.zero	6
.LC8:
	.string	"\0013%s: kzalloc freq_ctrl_ptr error\n"
	.zero	5
.LC9:
	.string	"\0013%s: hisi blk freq ctrl init: io_wait_time_threshold=%d, remove_req_time=%dms\n"
.LC10:
	.string	"\0013%s: hisi block ddr frequence ctrl: ddr_req_value_down=%d, ddr_req_value_up=%d\n"
	.zero	7
.LC11:
	.string	"&freq_ctrl_ptr->m_lock"
	.zero	1
.LC12:
	.string	"\0013%s: malloc ddr req error\n"
	.zero	4
.LC13:
	.string	"%s"
	.zero	5
.LC14:
	.string	"hisi_block_freq_ctrl"
	.zero	3
.LC15:
	.string	"\0013%s: creat workqueue error\n"
	.bss
	.align	3
.LANCHOR0 = . + 0
	.type	freq_ctrl_ptr, %object
	.size	freq_ctrl_ptr, 8
freq_ctrl_ptr:
	.zero	8
	.type	__key.29974, %object
	.size	__key.29974, 0
__key.29974:
	.text
.Letext0:
	.file 6 "/cloud/jenkins/workspace/950_chipset_0425_component/opensource/component_code/vendor/huawei/extra/build/build_script/kirin_kernel_release/kernel/include/uapi/asm-generic/int-ll64.h"
	.file 7 "/cloud/jenkins/workspace/950_chipset_0425_component/opensource/component_code/vendor/huawei/extra/build/build_script/kirin_kernel_release/kernel/include/asm-generic/int-ll64.h"
	.file 8 "/cloud/jenkins/workspace/950_chipset_0425_component/opensource/component_code/vendor/huawei/extra/build/build_script/kirin_kernel_release/kernel/include/uapi/asm-generic/posix_types.h"
	.file 9 "/cloud/jenkins/workspace/950_chipset_0425_component/opensource/component_code/vendor/huawei/extra/build/build_script/kirin_kernel_release/kernel/include/linux/types.h"
	.file 10 "/cloud/jenkins/workspace/950_chipset_0425_component/opensource/component_code/vendor/huawei/extra/build/build_script/kirin_kernel_release/kernel/include/linux/plist.h"
	.file 11 "/cloud/jenkins/workspace/950_chipset_0425_component/opensource/component_code/vendor/huawei/extra/build/build_script/kirin_kernel_release/kernel/include/linux/thread_info.h"
	.file 12 "/cloud/jenkins/workspace/950_chipset_0425_component/opensource/component_code/vendor/huawei/extra/build/build_script/kirin_kernel_release/kernel/include/uapi/linux/time.h"
	.file 13 "/cloud/jenkins/workspace/950_chipset_0425_component/opensource/component_code/vendor/huawei/extra/build/build_script/kirin_kernel_release/kernel/arch/arm64/include/asm/compat.h"
	.file 14 "/cloud/jenkins/workspace/950_chipset_0425_component/opensource/component_code/vendor/huawei/extra/build/build_script/kirin_kernel_release/kernel/include/uapi/asm-generic/poll.h"
	.file 15 "/cloud/jenkins/workspace/950_chipset_0425_component/opensource/component_code/vendor/huawei/extra/build/build_script/kirin_kernel_release/kernel/include/linux/sched.h"
	.file 16 "/cloud/jenkins/workspace/950_chipset_0425_component/opensource/component_code/vendor/huawei/extra/build/build_script/kirin_kernel_release/kernel/arch/arm64/include/asm/spinlock_types.h"
	.file 17 "/cloud/jenkins/workspace/950_chipset_0425_component/opensource/component_code/vendor/huawei/extra/build/build_script/kirin_kernel_release/kernel/include/linux/spinlock_types.h"
	.file 18 "/cloud/jenkins/workspace/950_chipset_0425_component/opensource/component_code/vendor/huawei/extra/build/build_script/kirin_kernel_release/kernel/include/linux/rwlock_types.h"
	.file 19 "/cloud/jenkins/workspace/950_chipset_0425_component/opensource/component_code/vendor/huawei/extra/build/build_script/kirin_kernel_release/kernel/include/asm-generic/atomic-long.h"
	.file 20 "/cloud/jenkins/workspace/950_chipset_0425_component/opensource/component_code/vendor/huawei/extra/build/build_script/kirin_kernel_release/kernel/arch/arm64/include/uapi/asm/ptrace.h"
	.file 21 "/cloud/jenkins/workspace/950_chipset_0425_component/opensource/component_code/vendor/huawei/extra/build/build_script/kirin_kernel_release/kernel/arch/arm64/include/asm/ptrace.h"
	.file 22 "/cloud/jenkins/workspace/950_chipset_0425_component/opensource/component_code/vendor/huawei/extra/build/build_script/kirin_kernel_release/kernel/arch/arm64/include/asm/fpsimd.h"
	.file 23 "/cloud/jenkins/workspace/950_chipset_0425_component/opensource/component_code/vendor/huawei/extra/build/build_script/kirin_kernel_release/kernel/arch/arm64/include/asm/hw_breakpoint.h"
	.file 24 "/cloud/jenkins/workspace/950_chipset_0425_component/opensource/component_code/vendor/huawei/extra/build/build_script/kirin_kernel_release/kernel/arch/arm64/include/asm/processor.h"
	.file 25 "/cloud/jenkins/workspace/950_chipset_0425_component/opensource/component_code/vendor/huawei/extra/build/build_script/kirin_kernel_release/kernel/include/linux/perf_event.h"
	.file 26 "/cloud/jenkins/workspace/950_chipset_0425_component/opensource/component_code/vendor/huawei/extra/build/build_script/kirin_kernel_release/kernel/include/linux/osq_lock.h"
	.file 27 "/cloud/jenkins/workspace/950_chipset_0425_component/opensource/component_code/vendor/huawei/extra/build/build_script/kirin_kernel_release/kernel/include/linux/mutex.h"
	.file 28 "/cloud/jenkins/workspace/950_chipset_0425_component/opensource/component_code/vendor/huawei/extra/build/build_script/kirin_kernel_release/kernel/include/linux/rwsem.h"
	.file 29 "/cloud/jenkins/workspace/950_chipset_0425_component/opensource/component_code/vendor/huawei/extra/build/build_script/kirin_kernel_release/kernel/include/linux/cpumask.h"
	.file 30 "/cloud/jenkins/workspace/950_chipset_0425_component/opensource/component_code/vendor/huawei/extra/build/build_script/kirin_kernel_release/kernel/include/linux/seqlock.h"
	.file 31 "/cloud/jenkins/workspace/950_chipset_0425_component/opensource/component_code/vendor/huawei/extra/build/build_script/kirin_kernel_release/kernel/include/linux/wait.h"
	.file 32 "/cloud/jenkins/workspace/950_chipset_0425_component/opensource/component_code/vendor/huawei/extra/build/build_script/kirin_kernel_release/kernel/include/linux/completion.h"
	.file 33 "/cloud/jenkins/workspace/950_chipset_0425_component/opensource/component_code/vendor/huawei/extra/build/build_script/kirin_kernel_release/kernel/include/linux/ktime.h"
	.file 34 "/cloud/jenkins/workspace/950_chipset_0425_component/opensource/component_code/vendor/huawei/extra/build/build_script/kirin_kernel_release/kernel/include/linux/timer.h"
	.file 35 "/cloud/jenkins/workspace/950_chipset_0425_component/opensource/component_code/vendor/huawei/extra/build/build_script/kirin_kernel_release/kernel/include/linux/rbtree.h"
	.file 36 "/cloud/jenkins/workspace/950_chipset_0425_component/opensource/component_code/vendor/huawei/extra/build/build_script/kirin_kernel_release/kernel/include/linux/nsproxy.h"
	.file 37 "/cloud/jenkins/workspace/950_chipset_0425_component/opensource/component_code/vendor/huawei/extra/build/build_script/kirin_kernel_release/kernel/include/linux/notifier.h"
	.file 38 "/cloud/jenkins/workspace/950_chipset_0425_component/opensource/component_code/vendor/huawei/extra/build/build_script/kirin_kernel_release/kernel/include/linux/fs.h"
	.file 39 "/cloud/jenkins/workspace/950_chipset_0425_component/opensource/component_code/vendor/huawei/extra/build/build_script/kirin_kernel_release/kernel/include/linux/device.h"
	.file 40 "/cloud/jenkins/workspace/950_chipset_0425_component/opensource/component_code/vendor/huawei/extra/build/build_script/kirin_kernel_release/kernel/include/linux/sysfs.h"
	.file 41 "/cloud/jenkins/workspace/950_chipset_0425_component/opensource/component_code/vendor/huawei/extra/build/build_script/kirin_kernel_release/kernel/include/linux/idr.h"
	.file 42 "/cloud/jenkins/workspace/950_chipset_0425_component/opensource/component_code/vendor/huawei/extra/build/build_script/kirin_kernel_release/kernel/include/linux/kernfs.h"
	.file 43 "/cloud/jenkins/workspace/950_chipset_0425_component/opensource/component_code/vendor/huawei/extra/build/build_script/kirin_kernel_release/kernel/include/linux/seq_file.h"
	.file 44 "/cloud/jenkins/workspace/950_chipset_0425_component/opensource/component_code/vendor/huawei/extra/build/build_script/kirin_kernel_release/kernel/include/linux/mm.h"
	.file 45 "/cloud/jenkins/workspace/950_chipset_0425_component/opensource/component_code/vendor/huawei/extra/build/build_script/kirin_kernel_release/kernel/include/linux/mm_types.h"
	.file 46 "/cloud/jenkins/workspace/950_chipset_0425_component/opensource/component_code/vendor/huawei/extra/build/build_script/kirin_kernel_release/kernel/include/linux/kobject_ns.h"
	.file 47 "/cloud/jenkins/workspace/950_chipset_0425_component/opensource/component_code/vendor/huawei/extra/build/build_script/kirin_kernel_release/kernel/include/linux/capability.h"
	.file 48 "/cloud/jenkins/workspace/950_chipset_0425_component/opensource/component_code/vendor/huawei/extra/build/build_script/kirin_kernel_release/kernel/include/linux/nodemask.h"
	.file 49 "/cloud/jenkins/workspace/950_chipset_0425_component/opensource/component_code/vendor/huawei/extra/build/build_script/kirin_kernel_release/kernel/include/linux/lockdep.h"
	.file 50 "/cloud/jenkins/workspace/950_chipset_0425_component/opensource/component_code/vendor/huawei/extra/build/build_script/kirin_kernel_release/kernel/include/linux/uprobes.h"
	.file 51 "/cloud/jenkins/workspace/950_chipset_0425_component/opensource/component_code/vendor/huawei/extra/build/build_script/kirin_kernel_release/kernel/arch/arm64/include/asm/pgtable-types.h"
	.file 52 "/cloud/jenkins/workspace/950_chipset_0425_component/opensource/component_code/vendor/huawei/extra/build/build_script/kirin_kernel_release/kernel/arch/arm64/include/asm/mmu.h"
	.file 53 "/cloud/jenkins/workspace/950_chipset_0425_component/opensource/component_code/vendor/huawei/extra/build/build_script/kirin_kernel_release/kernel/include/asm-generic/cputime_jiffies.h"
	.file 54 "/cloud/jenkins/workspace/950_chipset_0425_component/opensource/component_code/vendor/huawei/extra/build/build_script/kirin_kernel_release/kernel/include/linux/llist.h"
	.file 55 "/cloud/jenkins/workspace/950_chipset_0425_component/opensource/component_code/vendor/huawei/extra/build/build_script/kirin_kernel_release/kernel/arch/arm64/include/asm/smp.h"
	.file 56 "/cloud/jenkins/workspace/950_chipset_0425_component/opensource/component_code/vendor/huawei/extra/build/build_script/kirin_kernel_release/kernel/include/linux/uidgid.h"
	.file 57 "/cloud/jenkins/workspace/950_chipset_0425_component/opensource/component_code/vendor/huawei/extra/build/build_script/kirin_kernel_release/kernel/include/uapi/asm-generic/signal.h"
	.file 58 "/cloud/jenkins/workspace/950_chipset_0425_component/opensource/component_code/vendor/huawei/extra/build/build_script/kirin_kernel_release/kernel/include/uapi/asm-generic/signal-defs.h"
	.file 59 "/cloud/jenkins/workspace/950_chipset_0425_component/opensource/component_code/vendor/huawei/extra/build/build_script/kirin_kernel_release/kernel/include/uapi/asm-generic/siginfo.h"
	.file 60 "/cloud/jenkins/workspace/950_chipset_0425_component/opensource/component_code/vendor/huawei/extra/build/build_script/kirin_kernel_release/kernel/include/linux/signal.h"
	.file 61 "/cloud/jenkins/workspace/950_chipset_0425_component/opensource/component_code/vendor/huawei/extra/build/build_script/kirin_kernel_release/kernel/include/linux/pid.h"
	.file 62 "/cloud/jenkins/workspace/950_chipset_0425_component/opensource/component_code/vendor/huawei/extra/build/build_script/kirin_kernel_release/kernel/include/linux/pid_namespace.h"
	.file 63 "/cloud/jenkins/workspace/950_chipset_0425_component/opensource/component_code/vendor/huawei/extra/build/build_script/kirin_kernel_release/kernel/include/linux/percpu.h"
	.file 64 "/cloud/jenkins/workspace/950_chipset_0425_component/opensource/component_code/vendor/huawei/extra/build/build_script/kirin_kernel_release/kernel/include/linux/mmzone.h"
	.file 65 "/cloud/jenkins/workspace/950_chipset_0425_component/opensource/component_code/vendor/huawei/extra/build/build_script/kirin_kernel_release/kernel/include/linux/percpu_counter.h"
	.file 66 "/cloud/jenkins/workspace/950_chipset_0425_component/opensource/component_code/vendor/huawei/extra/build/build_script/kirin_kernel_release/kernel/include/linux/seccomp.h"
	.file 67 "/cloud/jenkins/workspace/950_chipset_0425_component/opensource/component_code/vendor/huawei/extra/build/build_script/kirin_kernel_release/kernel/include/uapi/linux/resource.h"
	.file 68 "/cloud/jenkins/workspace/950_chipset_0425_component/opensource/component_code/vendor/huawei/extra/build/build_script/kirin_kernel_release/kernel/include/linux/timerqueue.h"
	.file 69 "/cloud/jenkins/workspace/950_chipset_0425_component/opensource/component_code/vendor/huawei/extra/build/build_script/kirin_kernel_release/kernel/include/linux/hrtimer.h"
	.file 70 "/cloud/jenkins/workspace/950_chipset_0425_component/opensource/component_code/vendor/huawei/extra/build/build_script/kirin_kernel_release/kernel/include/linux/task_io_accounting.h"
	.file 71 "/cloud/jenkins/workspace/950_chipset_0425_component/opensource/component_code/vendor/huawei/extra/build/build_script/kirin_kernel_release/kernel/include/linux/assoc_array.h"
	.file 72 "/cloud/jenkins/workspace/950_chipset_0425_component/opensource/component_code/vendor/huawei/extra/build/build_script/kirin_kernel_release/kernel/include/linux/key.h"
	.file 73 "/cloud/jenkins/workspace/950_chipset_0425_component/opensource/component_code/vendor/huawei/extra/build/build_script/kirin_kernel_release/kernel/include/linux/cred.h"
	.file 74 "/cloud/jenkins/workspace/950_chipset_0425_component/opensource/component_code/vendor/huawei/extra/build/build_script/kirin_kernel_release/kernel/include/linux/percpu-refcount.h"
	.file 75 "/cloud/jenkins/workspace/950_chipset_0425_component/opensource/component_code/vendor/huawei/extra/build/build_script/kirin_kernel_release/kernel/include/linux/rcu_sync.h"
	.file 76 "/cloud/jenkins/workspace/950_chipset_0425_component/opensource/component_code/vendor/huawei/extra/build/build_script/kirin_kernel_release/kernel/include/linux/percpu-rwsem.h"
	.file 77 "/cloud/jenkins/workspace/950_chipset_0425_component/opensource/component_code/vendor/huawei/extra/build/build_script/kirin_kernel_release/kernel/include/linux/cgroup-defs.h"
	.file 78 "/cloud/jenkins/workspace/950_chipset_0425_component/opensource/component_code/vendor/huawei/extra/build/build_script/kirin_kernel_release/kernel/include/uapi/linux/taskstats.h"
	.file 79 "/cloud/jenkins/workspace/950_chipset_0425_component/opensource/component_code/vendor/huawei/extra/build/build_script/kirin_kernel_release/kernel/include/linux/compat.h"
	.file 80 "/cloud/jenkins/workspace/950_chipset_0425_component/opensource/component_code/vendor/huawei/extra/build/build_script/kirin_kernel_release/kernel/include/linux/stat.h"
	.file 81 "/cloud/jenkins/workspace/950_chipset_0425_component/opensource/component_code/vendor/huawei/extra/build/build_script/kirin_kernel_release/kernel/include/linux/kobject.h"
	.file 82 "/cloud/jenkins/workspace/950_chipset_0425_component/opensource/component_code/vendor/huawei/extra/build/build_script/kirin_kernel_release/kernel/include/linux/kref.h"
	.file 83 "/cloud/jenkins/workspace/950_chipset_0425_component/opensource/component_code/vendor/huawei/extra/build/build_script/kirin_kernel_release/kernel/include/linux/klist.h"
	.file 84 "/cloud/jenkins/workspace/950_chipset_0425_component/opensource/component_code/vendor/huawei/extra/build/build_script/kirin_kernel_release/kernel/include/linux/pinctrl/devinfo.h"
	.file 85 "/cloud/jenkins/workspace/950_chipset_0425_component/opensource/component_code/vendor/huawei/extra/build/build_script/kirin_kernel_release/kernel/include/linux/pm.h"
	.file 86 "/cloud/jenkins/workspace/950_chipset_0425_component/opensource/component_code/vendor/huawei/extra/build/build_script/kirin_kernel_release/kernel/include/linux/pm_wakeup.h"
	.file 87 "/cloud/jenkins/workspace/950_chipset_0425_component/opensource/component_code/vendor/huawei/extra/build/build_script/kirin_kernel_release/kernel/include/linux/pm_qos.h"
	.file 88 "/cloud/jenkins/workspace/950_chipset_0425_component/opensource/component_code/vendor/huawei/extra/build/build_script/kirin_kernel_release/kernel/arch/arm64/include/asm/device.h"
	.file 89 "/cloud/jenkins/workspace/950_chipset_0425_component/opensource/component_code/vendor/huawei/extra/build/build_script/kirin_kernel_release/kernel/include/linux/shrinker.h"
	.file 90 "/cloud/jenkins/workspace/950_chipset_0425_component/opensource/component_code/vendor/huawei/extra/build/build_script/kirin_kernel_release/kernel/include/linux/vm_event_item.h"
	.file 91 "/cloud/jenkins/workspace/950_chipset_0425_component/opensource/component_code/vendor/huawei/extra/build/build_script/kirin_kernel_release/kernel/include/linux/vmstat.h"
	.file 92 "/cloud/jenkins/workspace/950_chipset_0425_component/opensource/component_code/vendor/huawei/extra/build/build_script/kirin_kernel_release/kernel/include/linux/quota.h"
	.file 93 "/cloud/jenkins/workspace/950_chipset_0425_component/opensource/component_code/vendor/huawei/extra/build/build_script/kirin_kernel_release/kernel/include/linux/projid.h"
	.file 94 "/cloud/jenkins/workspace/950_chipset_0425_component/opensource/component_code/vendor/huawei/extra/build/build_script/kirin_kernel_release/kernel/include/uapi/linux/quota.h"
	.file 95 "/cloud/jenkins/workspace/950_chipset_0425_component/opensource/component_code/vendor/huawei/extra/build/build_script/kirin_kernel_release/kernel/include/linux/path.h"
	.file 96 "/cloud/jenkins/workspace/950_chipset_0425_component/opensource/component_code/vendor/huawei/extra/build/build_script/kirin_kernel_release/kernel/include/linux/jump_label.h"
	.file 97 "/cloud/jenkins/workspace/950_chipset_0425_component/opensource/component_code/vendor/huawei/extra/build/build_script/kirin_kernel_release/kernel/include/linux/tracepoint.h"
	.file 98 "/cloud/jenkins/workspace/950_chipset_0425_component/opensource/component_code/vendor/huawei/extra/build/build_script/kirin_kernel_release/kernel/include/linux/list_bl.h"
	.file 99 "/cloud/jenkins/workspace/950_chipset_0425_component/opensource/component_code/vendor/huawei/extra/build/build_script/kirin_kernel_release/kernel/include/linux/lockref.h"
	.file 100 "/cloud/jenkins/workspace/950_chipset_0425_component/opensource/component_code/vendor/huawei/extra/build/build_script/kirin_kernel_release/kernel/include/linux/dcache.h"
	.file 101 "/cloud/jenkins/workspace/950_chipset_0425_component/opensource/component_code/vendor/huawei/extra/build/build_script/kirin_kernel_release/kernel/include/linux/list_lru.h"
	.file 102 "/cloud/jenkins/workspace/950_chipset_0425_component/opensource/component_code/vendor/huawei/extra/build/build_script/kirin_kernel_release/kernel/include/linux/radix-tree.h"
	.file 103 "/cloud/jenkins/workspace/950_chipset_0425_component/opensource/component_code/vendor/huawei/extra/build/build_script/kirin_kernel_release/kernel/include/uapi/linux/fiemap.h"
	.file 104 "/cloud/jenkins/workspace/950_chipset_0425_component/opensource/component_code/vendor/huawei/extra/build/build_script/kirin_kernel_release/kernel/include/linux/migrate_mode.h"
	.file 105 "/cloud/jenkins/workspace/950_chipset_0425_component/opensource/component_code/vendor/huawei/extra/build/build_script/kirin_kernel_release/kernel/include/linux/blk_types.h"
	.file 106 "/cloud/jenkins/workspace/950_chipset_0425_component/opensource/component_code/vendor/huawei/extra/build/build_script/kirin_kernel_release/kernel/include/linux/uio.h"
	.file 107 "/cloud/jenkins/workspace/950_chipset_0425_component/opensource/component_code/vendor/huawei/extra/build/build_script/kirin_kernel_release/kernel/include/linux/nfs_fs_i.h"
	.file 108 "/cloud/jenkins/workspace/950_chipset_0425_component/opensource/component_code/vendor/huawei/extra/build/build_script/kirin_kernel_release/kernel/include/linux/poll.h"
	.file 109 "/cloud/jenkins/workspace/950_chipset_0425_component/opensource/component_code/vendor/huawei/extra/build/build_script/kirin_kernel_release/kernel/include/linux/seq_buf.h"
	.file 110 "/cloud/jenkins/workspace/950_chipset_0425_component/opensource/component_code/vendor/huawei/extra/build/build_script/kirin_kernel_release/kernel/include/linux/trace_seq.h"
	.file 111 "/cloud/jenkins/workspace/950_chipset_0425_component/opensource/component_code/vendor/huawei/extra/build/build_script/kirin_kernel_release/kernel/include/uapi/linux/perf_event.h"
	.file 112 "/cloud/jenkins/workspace/950_chipset_0425_component/opensource/component_code/vendor/huawei/extra/build/build_script/kirin_kernel_release/kernel/include/asm-generic/local.h"
	.file 113 "/cloud/jenkins/workspace/950_chipset_0425_component/opensource/component_code/vendor/huawei/extra/build/build_script/kirin_kernel_release/kernel/include/asm-generic/local64.h"
	.file 114 "/cloud/jenkins/workspace/950_chipset_0425_component/opensource/component_code/vendor/huawei/extra/build/build_script/kirin_kernel_release/kernel/include/linux/ns_common.h"
	.file 115 "/cloud/jenkins/workspace/950_chipset_0425_component/opensource/component_code/vendor/huawei/extra/build/build_script/kirin_kernel_release/kernel/include/uapi/linux/uio.h"
	.file 116 "/cloud/jenkins/workspace/950_chipset_0425_component/opensource/component_code/vendor/huawei/extra/build/build_script/kirin_kernel_release/kernel/include/linux/ftrace.h"
	.file 117 "/cloud/jenkins/workspace/950_chipset_0425_component/opensource/component_code/vendor/huawei/extra/build/build_script/kirin_kernel_release/kernel/include/linux/irq_work.h"
	.file 118 "/cloud/jenkins/workspace/950_chipset_0425_component/opensource/component_code/vendor/huawei/extra/build/build_script/kirin_kernel_release/kernel/include/linux/jump_label_ratelimit.h"
	.file 119 "/cloud/jenkins/workspace/950_chipset_0425_component/opensource/component_code/vendor/huawei/extra/build/build_script/kirin_kernel_release/kernel/include/linux/perf_regs.h"
	.file 120 "/cloud/jenkins/workspace/950_chipset_0425_component/opensource/component_code/vendor/huawei/extra/build/build_script/kirin_kernel_release/kernel/include/linux/trace_events.h"
	.file 121 "/cloud/jenkins/workspace/950_chipset_0425_component/opensource/component_code/vendor/huawei/extra/build/build_script/kirin_kernel_release/kernel/include/linux/bootdevice.h"
	.file 122 "/cloud/jenkins/workspace/950_chipset_0425_component/opensource/component_code/vendor/huawei/extra/build/build_script/kirin_kernel_release/kernel/include/asm-generic/bitops/builtin-__fls.h"
	.file 123 "/cloud/jenkins/workspace/950_chipset_0425_component/opensource/component_code/vendor/huawei/extra/build/build_script/kirin_kernel_release/kernel/include/asm-generic/bitops/fls64.h"
	.file 124 "/cloud/jenkins/workspace/950_chipset_0425_component/opensource/component_code/vendor/huawei/extra/build/build_script/kirin_kernel_release/kernel/include/linux/jiffies.h"
	.file 125 "/cloud/jenkins/workspace/950_chipset_0425_component/opensource/component_code/vendor/huawei/extra/build/build_script/kirin_kernel_release/kernel/include/linux/log2.h"
	.file 126 "/cloud/jenkins/workspace/950_chipset_0425_component/opensource/component_code/vendor/huawei/extra/build/build_script/kirin_kernel_release/kernel/include/asm-generic/getorder.h"
	.file 127 "/cloud/jenkins/workspace/950_chipset_0425_component/opensource/component_code/vendor/huawei/extra/build/build_script/kirin_kernel_release/kernel/include/linux/printk.h"
	.file 128 "/cloud/jenkins/workspace/950_chipset_0425_component/opensource/component_code/vendor/huawei/extra/build/build_script/kirin_kernel_release/kernel/arch/arm64/include/asm/cachetype.h"
	.file 129 "/cloud/jenkins/workspace/950_chipset_0425_component/opensource/component_code/vendor/huawei/extra/build/build_script/kirin_kernel_release/kernel/include/linux/kernel.h"
	.file 130 "/cloud/jenkins/workspace/950_chipset_0425_component/opensource/component_code/vendor/huawei/extra/build/build_script/kirin_kernel_release/kernel/arch/arm64/include/asm/thread_info.h"
	.file 131 "/cloud/jenkins/workspace/950_chipset_0425_component/opensource/component_code/vendor/huawei/extra/build/build_script/kirin_kernel_release/kernel/arch/arm64/include/asm/hwcap.h"
	.file 132 "/cloud/jenkins/workspace/950_chipset_0425_component/opensource/component_code/vendor/huawei/extra/build/build_script/kirin_kernel_release/kernel/arch/arm64/include/asm/cpufeature.h"
	.file 133 "/cloud/jenkins/workspace/950_chipset_0425_component/opensource/component_code/vendor/huawei/extra/build/build_script/kirin_kernel_release/kernel/arch/arm64/include/asm/memory.h"
	.file 134 "/cloud/jenkins/workspace/950_chipset_0425_component/opensource/component_code/vendor/huawei/extra/build/build_script/kirin_kernel_release/kernel/include/linux/highuid.h"
	.file 135 "/cloud/jenkins/workspace/950_chipset_0425_component/opensource/component_code/vendor/huawei/extra/build/build_script/kirin_kernel_release/kernel/include/asm-generic/percpu.h"
	.file 136 "/cloud/jenkins/workspace/950_chipset_0425_component/opensource/component_code/vendor/huawei/extra/build/build_script/kirin_kernel_release/kernel/include/linux/debug_locks.h"
	.file 137 "/cloud/jenkins/workspace/950_chipset_0425_component/opensource/component_code/vendor/huawei/extra/build/build_script/kirin_kernel_release/kernel/include/asm-generic/pgtable.h"
	.file 138 "/cloud/jenkins/workspace/950_chipset_0425_component/opensource/component_code/vendor/huawei/extra/build/build_script/kirin_kernel_release/kernel/arch/arm64/include/asm/irq.h"
	.file 139 "/cloud/jenkins/workspace/950_chipset_0425_component/opensource/component_code/vendor/huawei/extra/build/build_script/kirin_kernel_release/kernel/arch/arm64/include/asm/hardirq.h"
	.file 140 "/cloud/jenkins/workspace/950_chipset_0425_component/opensource/component_code/vendor/huawei/extra/build/build_script/kirin_kernel_release/kernel/include/linux/cgroup.h"
	.file 141 "/cloud/jenkins/workspace/950_chipset_0425_component/opensource/component_code/vendor/huawei/extra/build/build_script/kirin_kernel_release/kernel/include/linux/spinlock_api_smp.h"
	.file 142 "/cloud/jenkins/workspace/950_chipset_0425_component/opensource/component_code/vendor/huawei/extra/build/build_script/kirin_kernel_release/kernel/include/linux/syscalls.h"
	.section	.note.GNU-stack,"",%progbits
