	.cpu generic+fp+simd
	.file	"hisi-blk-latency.c"
	.text
.Ltext0:
	.cfi_sections	.debug_frame
#APP
	.irp	num,0,1,2,3,4,5,6,7,8,9,10,11,12,13,14,15,16,17,18,19,20,21,22,23,24,25,26,27,28,29,30
	.equ	.L__reg_num_x\num, \num
	.endr
	.equ	.L__reg_num_xzr, 31

	.macro	mrs_s, rt, sreg
	.inst	0xd5200000|(\sreg)|(.L__reg_num_\rt)
	.endm

	.macro	msr_s, sreg, rt
	.inst	0xd5000000|(\sreg)|(.L__reg_num_\rt)
	.endm

#NO_APP
	.align	2
	.type	blk_queue_usr_ctrl_recovery_timer_expire, %function
blk_queue_usr_ctrl_recovery_timer_expire:
.LFB3055:
	.file 1 "/cloud/jenkins/workspace/950_chipset_0425_component/opensource/component_code/vendor/huawei/extra/build/build_script/kirin_kernel_release/kernel/block/hisi-blk-latency.c"
	.loc 1 81 0
	.cfi_startproc
.LVL0:
	.loc 1 83 0
	str	xzr, [x0,432]
	.loc 1 84 0
	str	xzr, [x0,920]
	.loc 1 85 0
	ret
	.cfi_endproc
.LFE3055:
	.size	blk_queue_usr_ctrl_recovery_timer_expire, .-blk_queue_usr_ctrl_recovery_timer_expire
	.align	2
	.type	req_latency_rq_free_func, %function
req_latency_rq_free_func:
.LFB3067:
	.loc 1 408 0
	.cfi_startproc
.LVL1:
	.loc 1 411 0
	ldr	x1, [x0,280]
	.loc 1 409 0
	strb	wzr, [x0,224]
	.loc 1 410 0
	str	xzr, [x0,232]
	.loc 1 411 0
	cbz	x1, .L2
.L6:
.LBB150:
	.loc 1 413 0
	str	xzr, [x1,240]
	.loc 1 414 0
	ldr	x1, [x1]
	str	x1, [x0,280]
.LBE150:
	.loc 1 411 0
	cbnz	x1, .L6
.L2:
	.loc 1 416 0
	ret
	.cfi_endproc
.LFE3067:
	.size	req_latency_rq_free_func, .-req_latency_rq_free_func
	.align	2
	.type	__blk_queue_latency_average_calc, %function
__blk_queue_latency_average_calc:
.LFB3072:
	.loc 1 457 0
	.cfi_startproc
.LVL2:
	add	x8, x0, 3456
.LVL3:
	adrp	x7, .LANCHOR0
.LVL4:
.L10:
.LBB151:
	.loc 1 463 0
	add	x3, x7, :lo12:.LANCHOR0
.LVL5:
	ldr	x6, [x0,8]
	ldr	x5, [x0,16]
	add	x0, x0, 128
.LBE151:
	.loc 1 459 0 discriminator 1
	cmp	x0, x8
.LBB152:
	.loc 1 463 0
	ldr	x11, [x3,8]
	add	x2, x5, x6
	ldr	x10, [x3,16]
	ldr	x4, [x0,-104]
	mul	x6, x6, x11
	madd	x10, x5, x10, x6
	ldr	x9, [x3,24]
	add	x2, x2, x4
	ldr	x5, [x0,-96]
	ldr	x6, [x3,32]
	nop // between mem op and mult-accumulate
	madd	x9, x4, x9, x10
	ldr	x4, [x0,-88]
	add	x2, x2, x5
	ldr	x10, [x3,40]
	nop // between mem op and mult-accumulate
	madd	x6, x5, x6, x9
	ldr	x5, [x0,-80]
	add	x2, x2, x4
	ldr	x9, [x3,48]
	nop // between mem op and mult-accumulate
	madd	x10, x4, x10, x6
	ldr	x4, [x0,-72]
	add	x2, x2, x5
	ldr	x6, [x3,56]
	nop // between mem op and mult-accumulate
	madd	x9, x5, x9, x10
	ldr	x5, [x0,-64]
	add	x2, x2, x4
	ldr	x10, [x3,64]
	nop // between mem op and mult-accumulate
	madd	x6, x4, x6, x9
	ldr	x4, [x0,-56]
	add	x2, x2, x5
	ldr	x9, [x3,72]
	nop // between mem op and mult-accumulate
	madd	x10, x5, x10, x6
	ldr	x5, [x0,-48]
	add	x2, x2, x4
	ldr	x6, [x3,80]
	nop // between mem op and mult-accumulate
	madd	x9, x4, x9, x10
	ldr	x4, [x0,-40]
	add	x2, x2, x5
	ldr	x10, [x3,88]
	nop // between mem op and mult-accumulate
	madd	x6, x5, x6, x9
	ldr	x5, [x0,-32]
	add	x2, x2, x4
	ldr	x9, [x3,96]
	nop // between mem op and mult-accumulate
	madd	x10, x4, x10, x6
	ldr	x4, [x0,-24]
	add	x2, x2, x5
	ldr	x6, [x3,104]
	nop // between mem op and mult-accumulate
	madd	x9, x5, x9, x10
	ldr	x5, [x0,-16]
	add	x2, x2, x4
	ldr	x10, [x3,112]
	nop // between mem op and mult-accumulate
	madd	x6, x4, x6, x9
	add	x2, x2, x5
	ldr	x4, [x0,-8]
	ldr	x9, [x3,120]
	nop // between mem op and mult-accumulate
	madd	x5, x5, x10, x6
	ldr	x3, [x0,-128]
	add	x2, x2, x4
	ldr	x6, [x7,#:lo12:.LANCHOR0]
	nop // between mem op and mult-accumulate
	madd	x4, x4, x9, x5
	.loc 1 464 0
	add	x2, x2, x3
.LVL6:
	.loc 1 463 0
	madd	x3, x3, x6, x4
.LVL7:
	.loc 1 466 0
	udiv	x2, x3, x2
.LVL8:
	str	x2, [x1],8
.LVL9:
.LBE152:
	.loc 1 459 0 discriminator 1
	bne	.L10
	.loc 1 468 0
	ret
	.cfi_endproc
.LFE3072:
	.size	__blk_queue_latency_average_calc, .-__blk_queue_latency_average_calc
	.align	2
	.type	blk_latency_protect_timer_expire, %function
blk_latency_protect_timer_expire:
.LFB3056:
	.loc 1 151 0
	.cfi_startproc
.LVL10:
	stp	x29, x30, [sp, -32]!
	.cfi_def_cfa_offset 32
	.cfi_offset 29, -32
	.cfi_offset 30, -24
	add	x29, sp, 0
	.cfi_def_cfa_register 29
	str	x19, [sp,16]
	.cfi_offset 19, -16
.LBB153:
.LBB154:
.LBB155:
	.file 2 "/cloud/jenkins/workspace/950_chipset_0425_component/opensource/component_code/vendor/huawei/extra/build/build_script/kirin_kernel_release/kernel/include/linux/compiler.h"
	.loc 2 218 0 discriminator 4
	adrp	x19, .LANCHOR1
	ldr	w0, [x19,#:lo12:.LANCHOR1]
.LVL11:
.LBE155:
.LBE154:
.LBE153:
	.loc 1 152 0 discriminator 5
	cbnz	w0, .L17
.L13:
.LBB156:
.LBB157:
.LBB158:
	.loc 2 246 0
	add	x0, x19, :lo12:.LANCHOR1
	str	wzr, [x0,8]
.LBE158:
.LBE157:
.LBE156:
.LBB159:
.LBB160:
.LBB161:
	str	wzr, [x19,#:lo12:.LANCHOR1]
.LBE161:
.LBE160:
.LBE159:
	.loc 1 156 0
	ldr	x19, [sp,16]
	.cfi_remember_state
	.cfi_restore 19
	ldp	x29, x30, [sp], 32
	.cfi_restore 30
	.cfi_restore 29
	.cfi_def_cfa 31, 0
	ret
.L17:
	.cfi_restore_state
.LBB162:
.LBB163:
.LBB164:
	.loc 2 218 0 discriminator 4
	ldr	w1, [x19,#:lo12:.LANCHOR1]
.LBE164:
.LBE163:
.LBE162:
	.loc 1 153 0 discriminator 6
	adrp	x0, .LC0
	add	x0, x0, :lo12:.LC0
	bl	printk
.LVL12:
	b	.L13
	.cfi_endproc
.LFE3056:
	.size	blk_latency_protect_timer_expire, .-blk_latency_protect_timer_expire
	.align	2
	.global	bio_latency_check
	.type	bio_latency_check, %function
bio_latency_check:
.LFB3057:
	.loc 1 160 0
	.cfi_startproc
.LVL13:
	stp	x29, x30, [sp, -32]!
	.cfi_def_cfa_offset 32
	.cfi_offset 29, -32
	.cfi_offset 30, -24
	add	x29, sp, 0
	.cfi_def_cfa_register 29
	stp	x19, x20, [sp,16]
	.cfi_offset 19, -16
	.cfi_offset 20, -8
	.loc 1 161 0
	cbnz	w1, .L28
.L19:
	.loc 1 164 0
	uxtw	x19, w1
.LVL14:
	adrp	x1, .LANCHOR2
	add	x1, x1, :lo12:.LANCHOR2
	mov	x20, x0
	add	x1, x1, x19, lsl 4
	ldr	x1, [x1,8]
	cbz	x1, .L21
	.loc 1 165 0
	blr	x1
.LVL15:
.L21:
	.loc 1 167 0
	add	x19, x19, 20
.LVL16:
	bl	ktime_get
.LVL17:
	str	x0, [x20,x19,lsl 3]
.LVL18:
.L18:
	.loc 1 168 0
	ldp	x19, x20, [sp,16]
	.cfi_remember_state
	.cfi_restore 20
	.cfi_restore 19
.LVL19:
	ldp	x29, x30, [sp], 32
	.cfi_restore 30
	.cfi_restore 29
	.cfi_def_cfa 31, 0
	ret
.L28:
	.cfi_restore_state
	.loc 1 161 0 discriminator 1
	ldrb	w2, [x0,152]
	cmp	w2, 76
	beq	.L19
	b	.L18
	.cfi_endproc
.LFE3057:
	.size	bio_latency_check, .-bio_latency_check
	.align	2
	.global	req_latency_check
	.type	req_latency_check, %function
req_latency_check:
.LFB3068:
	.loc 1 419 0
	.cfi_startproc
.LVL20:
	stp	x29, x30, [sp, -32]!
	.cfi_def_cfa_offset 32
	.cfi_offset 29, -32
	.cfi_offset 30, -24
	add	x29, sp, 0
	.cfi_def_cfa_register 29
	stp	x19, x20, [sp,16]
	.cfi_offset 19, -16
	.cfi_offset 20, -8
	.loc 1 420 0
	cbnz	w1, .L39
.L30:
	.loc 1 423 0
	uxtw	x19, w1
.LVL21:
	adrp	x1, .LANCHOR2
	add	x1, x1, :lo12:.LANCHOR2
	mov	x20, x0
	add	x1, x1, x19, lsl 4
	ldr	x1, [x1,72]
	cbz	x1, .L32
	.loc 1 424 0
	blr	x1
.LVL22:
.L32:
	.loc 1 426 0
	add	x19, x19, 18
.LVL23:
	bl	ktime_get
.LVL24:
	add	x19, x20, x19, lsl 3
	str	x0, [x19,8]
.LVL25:
.L29:
	.loc 1 427 0
	ldp	x19, x20, [sp,16]
	.cfi_remember_state
	.cfi_restore 20
	.cfi_restore 19
.LVL26:
	ldp	x29, x30, [sp], 32
	.cfi_restore 30
	.cfi_restore 29
	.cfi_def_cfa 31, 0
	ret
.L39:
	.cfi_restore_state
	.loc 1 420 0 discriminator 1
	ldrb	w2, [x0,224]
	cmp	w2, 76
	beq	.L30
	b	.L29
	.cfi_endproc
.LFE3068:
	.size	req_latency_check, .-req_latency_check
	.align	2
	.type	bio_latency_check_timer_expire, %function
bio_latency_check_timer_expire:
.LFB3058:
	.loc 1 172 0
	.cfi_startproc
.LVL27:
	sub	sp, sp, #560
	.cfi_def_cfa_offset 560
	stp	x29, x30, [sp, -96]!
	.cfi_def_cfa_offset 656
	.cfi_offset 29, -656
	.cfi_offset 30, -648
	add	x29, sp, 0
	.cfi_def_cfa_register 29
	stp	x21, x22, [sp,32]
	.cfi_offset 21, -624
	.cfi_offset 22, -616
	adrp	x22, __stack_chk_guard
	mov	x21, x0
	stp	x19, x20, [sp,16]
	stp	x23, x24, [sp,48]
	ldr	x0, [x22,#:lo12:__stack_chk_guard]
.LVL28:
	.cfi_offset 19, -640
	.cfi_offset 20, -632
	.cfi_offset 23, -608
	.cfi_offset 24, -600
	.loc 1 183 0 discriminator 1
	adrp	x19, .LANCHOR1
	.loc 1 172 0
	stp	x25, x26, [sp,64]
	stp	x27, x28, [sp,80]
	sub	sp, sp, #16
	.cfi_offset 25, -592
	.cfi_offset 26, -584
	.cfi_offset 27, -576
	.cfi_offset 28, -568
	.loc 1 172 0
	str	x0, [x29,648]
	.loc 1 183 0 discriminator 1
	add	x20, x19, :lo12:.LANCHOR1
	.loc 1 179 0
	bl	ktime_get
.LVL29:
	mov	x25, x0
.LVL30:
	ldr	x0, [x21,8]
.LBB165:
.LBB166:
	.file 3 "/cloud/jenkins/workspace/950_chipset_0425_component/opensource/component_code/vendor/huawei/extra/build/build_script/kirin_kernel_release/kernel/include/linux/blkdev.h"
	.loc 3 1293 0
	ldr	x0, [x0,160]
	ldr	x23, [x0,928]
.LBE166:
.LBE165:
	.loc 1 182 0
	mov	x0, x23
	bl	blk_get_lld
.LVL31:
	mov	x26, x0
.LVL32:
	.loc 1 183 0 discriminator 1
	add	x0, x20, 16
	bl	_raw_spin_lock_irqsave
.LVL33:
	mov	x24, x0
.LVL34:
	.loc 1 184 0
	ldrb	w3, [x21,152]
	cmp	w3, 76
	bne	.L84
.LBB167:
.LBB168:
	.file 4 "/cloud/jenkins/workspace/950_chipset_0425_component/opensource/component_code/vendor/huawei/extra/build/build_script/kirin_kernel_release/kernel/arch/arm64/include/asm/atomic_ll_sc.h"
	.loc 4 90 0
	add	x2, x20, 24
#APP
// 90 "/cloud/jenkins/workspace/950_chipset_0425_component/opensource/component_code/vendor/huawei/extra/build/build_script/kirin_kernel_release/kernel/arch/arm64/include/asm/atomic_ll_sc.h" 1
	// atomic_add
	prfm	pstl1strm, [x2]
1:	ldxr	w0, [x2]
	add	w0, w0, 1
	stxr	w1, w0, [x2]
	cbnz	w1, 1b
// 0 "" 2
.LVL35:
#NO_APP
.LBE168:
.LBE167:
.LBB169:
.LBB170:
.LBB171:
	.loc 2 218 0 discriminator 4
	ldr	w0, [x20,8]
.LVL36:
.LBE171:
.LBE170:
.LBE169:
	.loc 1 192 0 discriminator 5
	cmp	w0, 1
	ble	.L43
.LBB172:
.LBB173:
	.loc 4 90 0
	add	x2, x19, :lo12:.LANCHOR1
#APP
// 90 "/cloud/jenkins/workspace/950_chipset_0425_component/opensource/component_code/vendor/huawei/extra/build/build_script/kirin_kernel_release/kernel/arch/arm64/include/asm/atomic_ll_sc.h" 1
	// atomic_add
	prfm	pstl1strm, [x2]
1:	ldxr	w0, [x2]
	add	w0, w0, 1
	stxr	w1, w0, [x2]
	cbnz	w1, 1b
// 0 "" 2
.LVL37:
#NO_APP
.L42:
.LBE173:
.LBE172:
.LBB174:
.LBB175:
	.file 5 "/cloud/jenkins/workspace/950_chipset_0425_component/opensource/component_code/vendor/huawei/extra/build/build_script/kirin_kernel_release/kernel/include/linux/spinlock.h"
	.loc 5 362 0
	add	x0, x19, :lo12:.LANCHOR1
.LVL38:
	mov	x1, x24
.LVL39:
	add	x0, x0, 16
	bl	_raw_spin_unlock_irqrestore
.LVL40:
.LBE175:
.LBE174:
	.loc 1 257 0
	str	wzr, [x21,248]
	.loc 1 258 0
	mov	x0, x21
	bl	bio_put
.LVL41:
	.loc 1 259 0
	ldr	x1, [x29,648]
	ldr	x0, [x22,#:lo12:__stack_chk_guard]
	cmp	x1, x0
	bne	.L85
	add	sp, x29, 0
	.cfi_remember_state
	.cfi_def_cfa_register 31
	ldp	x19, x20, [sp,16]
	.cfi_restore 20
	.cfi_restore 19
	ldp	x21, x22, [sp,32]
	.cfi_restore 22
	.cfi_restore 21
.LVL42:
	ldp	x23, x24, [sp,48]
	.cfi_restore 24
	.cfi_restore 23
.LVL43:
	ldp	x25, x26, [sp,64]
	.cfi_restore 26
	.cfi_restore 25
.LVL44:
	ldp	x27, x28, [sp,80]
	.cfi_restore 28
	.cfi_restore 27
.LVL45:
	ldp	x29, x30, [sp], 96
	.cfi_restore 30
	.cfi_restore 29
	.cfi_def_cfa_offset 560
	add	sp, sp, 560
	.cfi_def_cfa_offset 464
	ret
.LVL46:
.L84:
	.cfi_restore_state
	.loc 1 185 0
	adrp	x1, .LANCHOR2
	adrp	x0, .LC2
	add	x1, x1, :lo12:.LANCHOR2
	mov	w2, 186
	add	x1, x1, 208
	add	x0, x0, :lo12:.LC2
	bl	printk
.LVL47:
	.loc 1 188 0
	b	.L42
.LVL48:
.L43:
	.loc 1 196 0
	adrp	x0, .LC3
	.loc 1 197 0
	ldr	x1, [x21,256]
.LVL49:
	.loc 1 196 0
	add	x0, x0, :lo12:.LC3
	ldr	x3, [x0]
	ldr	w2, [x0,8]
	ldrb	w0, [x0,12]
	str	x3, [x29,144]
	str	w2, [x29,152]
	strb	w0, [x29,156]
	.loc 1 197 0
	cbz	x1, .L62
	.loc 1 197 0 is_stmt 0 discriminator 1
	ldr	x0, [x1,160]
	cbz	x0, .L62
	.loc 1 197 0 discriminator 3
	ldr	x1, [x1,144]
	cbz	x1, .L62
	.loc 1 197 0 discriminator 6
	ldr	w1, [x1,740]
	add	x2, x29, 112
	bl	disk_name
.LVL50:
	mov	x28, x0
.LVL51:
.L44:
	.loc 1 198 0 is_stmt 1
	ldr	x0, [x21,24]
	.loc 1 199 0
	adrp	x27, .LC5
	add	x1, x27, :lo12:.LC5
	str	x1, [x29,104]
	.loc 1 198 0 discriminator 7
	add	x20, x29, 156
	.loc 1 198 0 is_stmt 0
	bl	io_type_parse
.LVL52:
	.loc 1 198 0 discriminator 7
	mov	x4, x0
.LBB176:
.LBB177:
.LBB178:
	.loc 2 218 0 is_stmt 1 discriminator 4
	add	x1, x19, :lo12:.LANCHOR1
.LBE178:
.LBE177:
.LBE176:
	.loc 1 198 0 discriminator 7
	adrp	x2, .LC4
	mov	x7, x25
	add	x2, x2, :lo12:.LC4
	mov	x3, x28
.LBB181:
.LBB180:
.LBB179:
	.loc 2 218 0 discriminator 4
	ldr	w0, [x1,24]
.LBE179:
.LBE180:
.LBE181:
	.loc 1 198 0 discriminator 7
	mov	x1, 488
	str	w0, [sp]
	mov	x0, x20
	ldr	w6, [x21,48]
	ldr	x5, [x21,24]
	bl	snprintf
.LVL53:
	.loc 1 199 0
	ldr	x25, [x29,104]
.LVL54:
	add	x0, x29, 144
	mov	x1, x0
	mov	x0, x25
	bl	printk
.LVL55:
.LBB182:
	.loc 1 212 0 discriminator 6
	ldr	x1, [x23,576]
.LBE182:
	.loc 1 211 0
	adrp	x2, .LC6
.LBB185:
.LBB186:
.LBB187:
	.loc 2 218 0 discriminator 4
	ldr	w3, [x26,188]
.LBE187:
.LBE186:
.LBE185:
	.loc 1 211 0
	add	x2, x2, :lo12:.LC6
	mov	x0, x20
.LBB188:
.LBB183:
.LBB184:
	.loc 2 218 0 discriminator 4
	ldr	w4, [x1,832]
.LBE184:
.LBE183:
.LBE188:
.LBB189:
.LBB190:
.LBB191:
	ldr	w5, [x1,836]
.LBE191:
.LBE190:
.LBE189:
	.loc 1 211 0
	mov	x1, 488
	bl	snprintf
.LVL56:
	.loc 1 213 0
	add	x1, x29, 144
	mov	x0, x25
	bl	printk
.LVL57:
	.loc 1 216 0
	ldr	w0, [x21,272]
	mov	x2, x28
	ldr	w1, [x21,276]
	bl	iowp_report
.LVL58:
	.loc 1 218 0
	ldr	x6, [x21,264]
	cbz	x6, .L45
	.loc 1 219 0
	adrp	x2, .LC7
	ldr	w3, [x21,272]
	mov	x0, x20
	mov	x1, 488
	add	x2, x2, :lo12:.LC7
	add	x4, x21, 280
	mov	x5, x21
	bl	snprintf
.LVL59:
.L46:
	.loc 1 222 0
	add	x0, x27, :lo12:.LC5
	add	x1, x29, 144
	.loc 1 224 0
	mov	x20, 12
	.loc 1 222 0
	bl	printk
.LVL60:
	.loc 1 225 0
	ldr	x4, [x21,160]
	cbnz	x4, .L86
.L47:
	ldr	x4, [x21,168]
	cbnz	x4, .L87
.L48:
	ldr	x4, [x21,176]
	cbnz	x4, .L88
.L49:
	ldr	x4, [x21,184]
	cbnz	x4, .L89
.L50:
	.loc 1 229 0
	add	x0, x27, :lo12:.LC5
	add	x1, x29, 144
	bl	printk
.LVL61:
	.loc 1 231 0
	ldr	x25, [x21,240]
	cbz	x25, .L51
.LBB192:
	.loc 1 233 0
	ldrb	w0, [x25,224]
	cmp	w0, 76
	beq	.L90
.L53:
.LBE192:
.LBB193:
.LBB194:
	.loc 4 90 0
	add	x0, x19, :lo12:.LANCHOR1
	add	x3, x0, 8
#APP
// 90 "/cloud/jenkins/workspace/950_chipset_0425_component/opensource/component_code/vendor/huawei/extra/build/build_script/kirin_kernel_release/kernel/arch/arm64/include/asm/atomic_ll_sc.h" 1
	// atomic_add_return
	prfm	pstl1strm, [x3]
1:	ldxr	w1, [x3]
	add	w1, w1, 1
	stlxr	w2, w1, [x3]
	cbnz	w2, 1b
	dmb ish
// 0 "" 2
.LVL62:
#NO_APP
.LBE194:
.LBE193:
	.loc 1 252 0
	cmp	w1, 1
	bne	.L42
	.loc 1 253 0
	adrp	x1, jiffies
.LVL63:
	.loc 1 253 0 is_stmt 0 discriminator 1
	add	x0, x0, 32
	.loc 1 253 0
	ldr	x1, [x1,#:lo12:jiffies]
	.loc 1 253 0 discriminator 1
	add	x1, x1, 300
	bl	mod_timer
.LVL64:
	b	.L42
.LVL65:
.L85:
	.loc 1 259 0 is_stmt 1
	bl	__stack_chk_fail
.LVL66:
.L62:
	.loc 1 197 0 discriminator 6
	adrp	x8, .LC1
	add	x28, x8, :lo12:.LC1
.LVL67:
	b	.L44
.LVL68:
.L87:
	.loc 1 227 0
	add	x0, x29, 144
	mov	x1, 500
	adrp	x2, .LC9
	adrp	x3, .LC11
	add	x0, x0, x20
	sub	x1, x1, x20
	add	x2, x2, :lo12:.LC9
	add	x3, x3, :lo12:.LC11
	bl	snprintf
.LVL69:
	add	x20, x20, x0, sxtw
	b	.L48
.L86:
	add	x0, x29, 144
	adrp	x2, .LC9
	adrp	x3, .LC10
	add	x0, x0, x20
	mov	x1, 488
	add	x2, x2, :lo12:.LC9
	add	x3, x3, :lo12:.LC10
	bl	snprintf
.LVL70:
	sxtw	x0, w0
	add	x20, x0, x20
	b	.L47
.L90:
.LBB195:
	.loc 1 235 0
	ldr	x6, [x25,232]
	cbz	x6, .L54
	.loc 1 236 0
	mov	x1, 500
	adrp	x2, .LC14
	ldr	w3, [x25,240]
	add	x0, x29, 156
	sub	x1, x1, x20
	add	x2, x2, :lo12:.LC14
	add	x4, x25, 248
	mov	x5, x25
	bl	snprintf
.LVL71:
.L55:
	.loc 1 239 0
	add	x0, x27, :lo12:.LC5
	add	x1, x29, 144
	.loc 1 244 0
	adrp	x28, .LANCHOR2
.LVL72:
	.loc 1 239 0
	mov	x26, 0
.LVL73:
	bl	printk
.LVL74:
	.loc 1 241 0
	mov	x20, 12
	.loc 1 244 0
	adrp	x5, .LC9
	mov	x6, 500
	add	x5, x5, :lo12:.LC9
	add	x28, x28, :lo12:.LANCHOR2
.L57:
	add	x0, x25, x26
	.loc 1 242 0
	ldr	x4, [x0,152]
	cbz	x4, .L56
	add	x3, x28, x26, lsl 1
	.loc 1 244 0
	add	x0, x29, 144
	sub	x1, x6, x20
	add	x0, x0, x20
	mov	x2, x5
	str	x6, [x29,96]
	ldr	x3, [x3,64]
	str	x5, [x29,104]
	bl	snprintf
.LVL75:
	add	x20, x20, x0, sxtw
	ldr	x6, [x29,96]
	ldr	x5, [x29,104]
.L56:
	add	x26, x26, 8
	.loc 1 241 0 discriminator 1
	cmp	x26, 72
	bne	.L57
	.loc 1 246 0
	ldr	w3, [x25,544]
	mov	x1, 500
	ldrb	w4, [x25,116]
	add	x0, x29, 144
	ldrb	w5, [x25,117]
	adrp	x2, .LC16
	sub	x1, x1, x20
	add	x0, x0, x20
	add	x2, x2, :lo12:.LC16
	bl	snprintf
.LVL76:
	.loc 1 247 0
	add	x0, x27, :lo12:.LC5
	add	x1, x29, 144
	bl	printk
.LVL77:
.L51:
.LBE195:
	.loc 1 249 0
	ldr	x2, [x23,888]
	cbz	x2, .L53
	.loc 1 250 0
	mov	x0, x23
	mov	w1, 0
	blr	x2
.LVL78:
	b	.L53
.L89:
	.loc 1 227 0
	add	x0, x29, 144
	mov	x1, 500
	adrp	x2, .LC9
	adrp	x3, .LC13
	add	x0, x0, x20
	sub	x1, x1, x20
	add	x2, x2, :lo12:.LC9
	add	x3, x3, :lo12:.LC13
	bl	snprintf
.LVL79:
	add	x20, x20, x0, sxtw
	b	.L50
.L88:
	add	x0, x29, 144
	mov	x1, 500
	adrp	x2, .LC9
	adrp	x3, .LC12
	add	x0, x0, x20
	sub	x1, x1, x20
	add	x2, x2, :lo12:.LC9
	add	x3, x3, :lo12:.LC12
	bl	snprintf
.LVL80:
	add	x20, x20, x0, sxtw
	b	.L49
.L45:
	.loc 1 221 0
	adrp	x2, .LC8
	mov	x0, x20
	mov	x1, 488
	add	x2, x2, :lo12:.LC8
	mov	x3, x21
	mov	x4, 0
	bl	snprintf
.LVL81:
	b	.L46
.L54:
.LBB196:
	.loc 1 238 0
	mov	x1, 500
	adrp	x2, .LC15
	add	x0, x29, 156
	sub	x1, x1, x20
	add	x2, x2, :lo12:.LC15
	mov	x3, x25
	mov	x4, 0
	bl	snprintf
.LVL82:
	b	.L55
.LBE196:
	.cfi_endproc
.LFE3058:
	.size	bio_latency_check_timer_expire, .-bio_latency_check_timer_expire
	.align	2
	.type	bio_latency_submit_func, %function
bio_latency_submit_func:
.LFB3060:
	.loc 1 270 0
	.cfi_startproc
.LVL83:
	stp	x29, x30, [sp, -48]!
	.cfi_def_cfa_offset 48
	.cfi_offset 29, -48
	.cfi_offset 30, -40
	add	x29, sp, 0
	.cfi_def_cfa_register 29
	stp	x19, x20, [sp,16]
	str	x21, [sp,32]
	.cfi_offset 19, -32
	.cfi_offset 20, -24
	.cfi_offset 21, -16
	.loc 1 273 0
	strb	wzr, [x0,300]
	.loc 1 274 0
	ldr	x1, [x0,8]
	cbz	x1, .L91
.LBB221:
.LBB222:
	.loc 3 1293 0
	ldr	x1, [x1,160]
	ldr	x20, [x1,928]
.LBE222:
.LBE221:
	.loc 1 277 0
	cbz	x20, .L91
	.loc 1 277 0 is_stmt 0 discriminator 1
	ldrb	w1, [x20,976]
	cbz	w1, .L91
	mov	x19, x0
	.loc 1 279 0 is_stmt 1
	ldrb	w0, [x0,152]
.LVL84:
	cmp	w0, 76
	beq	.L95
	.loc 1 281 0
	add	x21, x19, 192
	.loc 1 280 0
	mov	w1, 1
	.loc 1 281 0
	mov	x0, x21
	.loc 1 280 0
	str	w1, [x19,248]
	.loc 1 281 0
	mov	x2, 0
	mov	w1, 0
	mov	x3, 0
	bl	init_timer_key
.LVL85:
	.loc 1 282 0
	str	x19, [x19,224]
.LBB223:
.LBB224:
	.file 6 "/cloud/jenkins/workspace/950_chipset_0425_component/opensource/component_code/vendor/huawei/extra/build/build_script/kirin_kernel_release/kernel/include/linux/bio.h"
	.loc 6 284 0
	ldr	w0, [x19,16]
.LBE224:
.LBE223:
	.loc 1 283 0
	adrp	x1, bio_latency_check_timer_expire
	add	x1, x1, :lo12:bio_latency_check_timer_expire
	str	x1, [x19,216]
.LBB228:
.LBB227:
	.loc 6 284 0
	orr	w0, w0, 256
	str	w0, [x19,16]
	.loc 6 285 0
#APP
// 285 "/cloud/jenkins/workspace/950_chipset_0425_component/opensource/component_code/vendor/huawei/extra/build/build_script/kirin_kernel_release/kernel/include/linux/bio.h" 1
	dmb ish
// 0 "" 2
#NO_APP
.LBB225:
.LBB226:
	.loc 4 90 0
	add	x2, x19, 348
#APP
// 90 "/cloud/jenkins/workspace/950_chipset_0425_component/opensource/component_code/vendor/huawei/extra/build/build_script/kirin_kernel_release/kernel/arch/arm64/include/asm/atomic_ll_sc.h" 1
	// atomic_add
	prfm	pstl1strm, [x2]
1:	ldxr	w0, [x2]
	add	w0, w0, 1
	stxr	w1, w0, [x2]
	cbnz	w1, 1b
// 0 "" 2
.LVL86:
#NO_APP
.LBE226:
.LBE225:
.LBE227:
.LBE228:
.LBB229:
.LBB230:
	.file 7 "/cloud/jenkins/workspace/950_chipset_0425_component/opensource/component_code/vendor/huawei/extra/build/build_script/kirin_kernel_release/kernel/include/linux/jiffies.h"
	.loc 7 361 0
	ldr	w0, [x20,980]
.LVL87:
	bl	__msecs_to_jiffies
.LVL88:
.LBE230:
.LBE229:
	.loc 1 286 0
	adrp	x1, jiffies
	ldr	x1, [x1,#:lo12:jiffies]
	add	x1, x0, x1
	.loc 1 286 0 is_stmt 0 discriminator 1
	mov	x0, x21
	bl	mod_timer
.LVL89:
	.loc 1 287 0 is_stmt 1
	ldr	x0, [x19,8]
.LBB231:
.LBB232:
	.loc 1 266 0 discriminator 1
	add	x1, x19, 280
.LBE232:
.LBE231:
	.loc 1 287 0
	str	x0, [x19,256]
.LBB236:
.LBB235:
.LBB233:
.LBB234:
	.file 8 "/cloud/jenkins/workspace/950_chipset_0425_component/opensource/component_code/vendor/huawei/extra/build/build_script/kirin_kernel_release/kernel/arch/arm64/include/asm/thread_info.h"
	.loc 8 97 0
#APP
// 97 "/cloud/jenkins/workspace/950_chipset_0425_component/opensource/component_code/vendor/huawei/extra/build/build_script/kirin_kernel_release/kernel/arch/arm64/include/asm/thread_info.h" 1
	mrs x0, sp_el0
// 0 "" 2
.LVL90:
#NO_APP
.LBE234:
.LBE233:
	.loc 1 263 0
	ldr	x2, [x0,16]
	str	x2, [x19,264]
	.loc 1 264 0
	ldr	x2, [x0,16]
	ldr	w2, [x2,1104]
	str	w2, [x19,272]
	.loc 1 265 0
	ldr	x2, [x0,16]
	ldr	w2, [x2,1108]
	str	w2, [x19,276]
	.loc 1 266 0 discriminator 1
	ldr	x0, [x0,16]
.LVL91:
	add	x0, x0, 1544
	ldp	x2, x3, [x0]
	stp	x2, x3, [x1]
.L95:
.LBE235:
.LBE236:
	.loc 1 290 0
	mov	w0, 76
	.loc 1 291 0
	str	xzr, [x19,240]
	.loc 1 290 0
	strb	w0, [x19,152]
	.loc 1 293 0
	str	xzr, [x19,160]
	str	xzr, [x19,168]
	str	xzr, [x19,176]
	str	xzr, [x19,184]
	.loc 1 294 0
	ldrb	w0, [x20,977]
	cbnz	w0, .L117
.L91:
	.loc 1 309 0
	ldp	x19, x20, [sp,16]
	.cfi_remember_state
	.cfi_restore 20
	.cfi_restore 19
.LVL92:
	ldr	x21, [sp,32]
	.cfi_restore 21
	ldp	x29, x30, [sp], 48
	.cfi_restore 30
	.cfi_restore 29
	.cfi_def_cfa 31, 0
	ret
.LVL93:
.L117:
	.cfi_restore_state
.LBB237:
.LBB238:
.LBB239:
.LBB240:
	.file 9 "/cloud/jenkins/workspace/950_chipset_0425_component/opensource/component_code/vendor/huawei/extra/build/build_script/kirin_kernel_release/kernel/include/linux/timekeeping.h"
	.loc 9 191 0
	mov	w0, 1
	bl	ktime_get_with_offset
.LVL94:
.LBE240:
.LBE239:
	.loc 9 244 0 discriminator 1
	bl	ns_to_timespec
.LVL95:
	add	x2, x19, 304
	stp	x0, x1, [x2]
.LBE238:
.LBE237:
	.loc 1 296 0
	str	xzr, [x19,320]
	.loc 1 297 0
	ldr	w0, [x19,48]
	.loc 1 298 0
	ldr	x1, [x19,24]
	.loc 1 297 0
	lsr	w0, w0, 12
	str	w0, [x19,296]
	.loc 1 298 0
	tbz	x1, 0, .L96
	.loc 1 299 0 discriminator 1
	tbz	x1, 13, .L97
	cbnz	w0, .L97
	.loc 1 300 0
	mov	w0, 4
	strb	w0, [x19,300]
	b	.L91
.L96:
	.loc 1 307 0
	mov	w0, 1
	strb	w0, [x19,300]
	b	.L91
.L97:
	.loc 1 301 0
	tbz	x1, 7, .L98
	.loc 1 302 0
	mov	w0, 3
	strb	w0, [x19,300]
	b	.L91
.L98:
	.loc 1 304 0
	mov	w0, 2
	strb	w0, [x19,300]
	b	.L91
	.cfi_endproc
.LFE3060:
	.size	bio_latency_submit_func, .-bio_latency_submit_func
	.align	2
	.type	req_latency_init_from_bio_func, %function
req_latency_init_from_bio_func:
.LFB3064:
	.loc 1 382 0
	.cfi_startproc
.LVL96:
	.loc 1 384 0
	ldr	x1, [x0,64]
	cbz	x1, .L120
	.loc 1 384 0 is_stmt 0 discriminator 1
	ldrb	w1, [x1,976]
	.loc 1 384 0 discriminator 3
	mov	w2, 76
	cmp	w1, wzr
	csel	w1, w1, w2, eq
.L119:
	.loc 1 384 0 discriminator 6
	strb	w1, [x0,224]
.LBB251:
.LBB252:
	.loc 1 378 0 is_stmt 1 discriminator 1
	add	x2, x0, 248
.LBE252:
.LBE251:
	.loc 1 386 0
	str	xzr, [x0,152]
	str	xzr, [x0,160]
	str	xzr, [x0,168]
	str	xzr, [x0,176]
	str	xzr, [x0,184]
	str	xzr, [x0,192]
	str	xzr, [x0,200]
	str	xzr, [x0,208]
	str	xzr, [x0,216]
.LBB256:
.LBB255:
.LBB253:
.LBB254:
	.loc 8 97 0
#APP
// 97 "/cloud/jenkins/workspace/950_chipset_0425_component/opensource/component_code/vendor/huawei/extra/build/build_script/kirin_kernel_release/kernel/arch/arm64/include/asm/thread_info.h" 1
	mrs x1, sp_el0
// 0 "" 2
.LVL97:
#NO_APP
.LBE254:
.LBE253:
	.loc 1 375 0
	ldr	x3, [x1,16]
	str	x3, [x0,232]
	.loc 1 376 0
	ldr	x3, [x1,16]
	ldr	w3, [x3,1104]
	str	w3, [x0,240]
	.loc 1 377 0
	ldr	x3, [x1,16]
	ldr	w3, [x3,1108]
	str	w3, [x0,244]
	.loc 1 378 0 discriminator 1
	ldr	x0, [x1,16]
.LVL98:
	add	x0, x0, 1544
	ldp	x0, x1, [x0]
	stp	x0, x1, [x2]
.LBE255:
.LBE256:
	.loc 1 389 0
	ret
.LVL99:
.L120:
	.loc 1 384 0 discriminator 4
	mov	w1, 0
	b	.L119
	.cfi_endproc
.LFE3064:
	.size	req_latency_init_from_bio_func, .-req_latency_init_from_bio_func
	.align	2
	.type	req_latency_rq_complete_func, %function
req_latency_rq_complete_func:
.LFB3066:
	.loc 1 402 0
	.cfi_startproc
.LVL100:
	stp	x29, x30, [sp, -32]!
	.cfi_def_cfa_offset 32
	.cfi_offset 29, -32
	.cfi_offset 30, -24
	add	x29, sp, 0
	.cfi_def_cfa_register 29
	str	x19, [sp,16]
	.cfi_offset 19, -16
	.loc 1 403 0
	ldrb	w1, [x0,225]
	cbnz	w1, .L128
	.loc 1 405 0
	ldr	x19, [sp,16]
	.cfi_remember_state
	.cfi_restore 19
	ldp	x29, x30, [sp], 32
	.cfi_restore 30
	.cfi_restore 29
	.cfi_def_cfa 31, 0
	ret
.L128:
	.cfi_restore_state
	mov	x19, x0
.LBB263:
.LBB264:
.LBB265:
.LBB266:
.LBB267:
.LBB268:
	.loc 9 191 0
	mov	w0, 1
.LVL101:
	bl	ktime_get_with_offset
.LVL102:
.LBE268:
.LBE267:
	.loc 9 244 0 discriminator 1
	bl	ns_to_timespec
.LVL103:
	add	x2, x19, 136
	stp	x0, x1, [x2]
.LBE266:
.LBE265:
.LBE264:
.LBE263:
	.loc 1 405 0
	ldr	x19, [sp,16]
	.cfi_restore 19
.LVL104:
	ldp	x29, x30, [sp], 32
	.cfi_restore 29
	.cfi_restore 30
	.cfi_def_cfa 31, 0
	ret
	.cfi_endproc
.LFE3066:
	.size	req_latency_rq_complete_func, .-req_latency_rq_complete_func
	.align	2
	.type	bio_latency_statistic_calc.isra.2, %function
bio_latency_statistic_calc.isra.2:
.LFB3080:
	.loc 1 311 0
	.cfi_startproc
.LVL105:
	stp	x29, x30, [sp, -64]!
	.cfi_def_cfa_offset 64
	.cfi_offset 29, -64
	.cfi_offset 30, -56
	uxtb	w0, w0
	add	x29, sp, 0
	.cfi_def_cfa_register 29
	stp	x19, x20, [sp,16]
	stp	x21, x22, [sp,32]
	stp	x23, x24, [sp,48]
	.cfi_offset 19, -48
	.cfi_offset 20, -40
	.cfi_offset 21, -32
	.cfi_offset 22, -24
	.cfi_offset 23, -16
	.cfi_offset 24, -8
	.loc 1 315 0
	tbnz	x2, #63, .L139
	.loc 1 317 0
	mov	x9, 22859
	adrp	x10, .LANCHOR2
	movk	x9, 0x3886, lsl 16
	add	x6, x10, :lo12:.LANCHOR2
	movk	x9, 0xc5d6, lsl 32
	add	x6, x6, 244
	movk	x9, 0x346d, lsl 48
	mov	w8, 0
.LVL106:
	mov	w7, 1
	smulh	x9, x2, x9
	asr	x9, x9, 11
	sub	x19, x9, x2, asr 63
.LVL107:
	b	.L135
.L131:
	add	x6, x6, 24
	.loc 1 318 0 discriminator 1
	ldrb	w7, [x6,-4]
	.loc 1 318 0 is_stmt 0 discriminator 2
	add	w8, w8, 1
	.loc 1 318 0 discriminator 1
	cbz	w7, .L166
.L135:
	.loc 1 319 0 is_stmt 1
	cmp	w7, w0
	bne	.L131
	.loc 1 319 0 is_stmt 0 discriminator 1
	ldr	w7, [x6]
	.loc 1 319 0 discriminator 2
	cmp	w7, w1
	bcs	.L157
	cbnz	w7, .L131
.L157:
	.loc 1 325 0 is_stmt 1
	adrp	x9, .LANCHOR0
	.loc 1 320 0
	sxtw	x6, w8
.LVL108:
	lsl	x0, x6, 5
.LVL109:
	add	x10, x10, :lo12:.LANCHOR2
	sub	x6, x0, x6, lsl 3
.LVL110:
	.loc 1 325 0
	ldr	x0, [x9,#:lo12:.LANCHOR0]
	.loc 1 320 0
	add	x6, x10, x6
	.loc 1 325 0
	cmp	x19, x0
	.loc 1 320 0
	ldr	w24, [x6,248]
	.loc 1 325 0
	ble	.L167
.LVL111:
.L134:
	add	x6, x9, :lo12:.LANCHOR0
	ldr	x0, [x6,8]
	cmp	x19, x0
	ble	.L141
	ldr	x0, [x6,16]
	cmp	x19, x0
	ble	.L142
	ldr	x0, [x6,24]
	cmp	x19, x0
	ble	.L143
	ldr	x0, [x6,32]
	cmp	x19, x0
	ble	.L144
	ldr	x0, [x6,40]
	cmp	x19, x0
	ble	.L145
	ldr	x0, [x6,48]
	cmp	x19, x0
	ble	.L146
	ldr	x0, [x6,56]
	cmp	x19, x0
	ble	.L147
	ldr	x0, [x6,64]
	cmp	x19, x0
	ble	.L148
	ldr	x0, [x6,72]
	cmp	x19, x0
	ble	.L149
	ldr	x0, [x6,80]
	cmp	x19, x0
	ble	.L150
	ldr	x0, [x6,88]
	cmp	x19, x0
	ble	.L151
	ldr	x0, [x6,96]
	cmp	x19, x0
	ble	.L152
	ldr	x0, [x6,104]
	cmp	x19, x0
	ble	.L153
	ldr	x0, [x6,112]
	mov	w20, 14
	cmp	x19, x0
	mov	w0, 15
	csel	w20, w20, w0, le
.LVL112:
.L133:
	.loc 1 330 0
	cmp	w24, 26
	bgt	.L156
	mov	x22, x3
	.loc 1 331 0 discriminator 1
	mov	x0, x5
	mov	x21, x4
	mov	x23, x5
	bl	_raw_spin_lock_irqsave
.LVL113:
	mov	x1, x0
.LVL114:
	.loc 1 332 0
	sbfiz	x6, x24, 7, 32
	add	x6, x6, x20, sxtw 3
	ldr	x10, [x22,x6]
.LBB269:
.LBB270:
	.loc 5 362 0
	mov	x0, x23
.LBE270:
.LBE269:
	.loc 1 332 0
	add	x9, x10, 1
	str	x9, [x22,x6]
	.loc 1 333 0
	ldr	x6, [x21,w24,sxtw 3]
	cmp	x6, x19
	csel	x9, x6, x19, ge
	str	x9, [x21,w24,sxtw 3]
.LBB272:
.LBB271:
	.loc 5 362 0
	bl	_raw_spin_unlock_irqrestore
.LVL115:
.LBE271:
.LBE272:
	.loc 1 339 0
	mov	w0, 0
.LVL116:
.L163:
	.loc 1 340 0
	ldp	x19, x20, [sp,16]
	.cfi_remember_state
	.cfi_restore 20
	.cfi_restore 19
.LVL117:
	ldp	x21, x22, [sp,32]
	.cfi_restore 22
	.cfi_restore 21
.LVL118:
	ldp	x23, x24, [sp,48]
	.cfi_restore 24
	.cfi_restore 23
.LVL119:
	ldp	x29, x30, [sp], 64
	.cfi_restore 30
	.cfi_restore 29
	.cfi_def_cfa 31, 0
	ret
.LVL120:
.L166:
	.cfi_restore_state
	.loc 1 325 0
	adrp	x9, .LANCHOR0
	ldr	x0, [x9,#:lo12:.LANCHOR0]
.LVL121:
	cmp	x19, x0
	ble	.L156
	.loc 1 313 0
	mov	w24, 255
.LVL122:
	b	.L134
.LVL123:
.L156:
	.loc 1 338 0
	mov	w0, -5
	.loc 1 340 0
	ldp	x19, x20, [sp,16]
	.cfi_remember_state
	.cfi_restore 19
	.cfi_restore 20
.LVL124:
	ldp	x21, x22, [sp,32]
	.cfi_restore 21
	.cfi_restore 22
	ldp	x23, x24, [sp,48]
	.cfi_restore 23
	.cfi_restore 24
.LVL125:
	ldp	x29, x30, [sp], 64
	.cfi_restore 29
	.cfi_restore 30
	.cfi_def_cfa 31, 0
	ret
.LVL126:
.L148:
	.cfi_restore_state
	.loc 1 324 0 discriminator 2
	mov	w20, 8
.LVL127:
	b	.L133
.LVL128:
.L167:
	.loc 1 324 0 is_stmt 0
	mov	w20, 0
.LVL129:
	b	.L133
.LVL130:
.L141:
	.loc 1 324 0 discriminator 2
	mov	w20, 1
.LVL131:
	b	.L133
.LVL132:
.L142:
	mov	w20, 2
.LVL133:
	b	.L133
.LVL134:
.L143:
	mov	w20, 3
.LVL135:
	b	.L133
.LVL136:
.L144:
	mov	w20, 4
.LVL137:
	b	.L133
.LVL138:
.L146:
	mov	w20, 6
.LVL139:
	b	.L133
.LVL140:
.L145:
	mov	w20, 5
.LVL141:
	b	.L133
.LVL142:
.L147:
	mov	w20, 7
.LVL143:
	b	.L133
.LVL144:
.L149:
	mov	w20, 9
.LVL145:
	b	.L133
.LVL146:
.L139:
	.loc 1 316 0 is_stmt 1
	mov	w0, -1
.LVL147:
	b	.L163
.LVL148:
.L150:
	.loc 1 324 0 discriminator 2
	mov	w20, 10
.LVL149:
	b	.L133
.LVL150:
.L153:
	mov	w20, 13
.LVL151:
	b	.L133
.LVL152:
.L151:
	mov	w20, 11
.LVL153:
	b	.L133
.LVL154:
.L152:
	mov	w20, 12
.LVL155:
	b	.L133
	.cfi_endproc
.LFE3080:
	.size	bio_latency_statistic_calc.isra.2, .-bio_latency_statistic_calc.isra.2
	.align	2
	.type	bio_latency_endio_func, %function
bio_latency_endio_func:
.LFB3062:
	.loc 1 343 0
	.cfi_startproc
.LVL156:
	stp	x29, x30, [sp, -48]!
	.cfi_def_cfa_offset 48
	.cfi_offset 29, -48
	.cfi_offset 30, -40
	add	x29, sp, 0
	.cfi_def_cfa_register 29
	stp	x19, x20, [sp,16]
	.cfi_offset 19, -32
	.cfi_offset 20, -24
	mov	x19, x0
	str	x21, [sp,32]
	.cfi_offset 21, -16
	.loc 1 352 0
	add	x0, x0, 192
.LVL157:
	ldr	x1, [x19,8]
	.loc 1 349 0
	strb	wzr, [x19,152]
.LBB273:
.LBB274:
	.loc 3 1293 0
	ldr	x1, [x1,160]
	ldr	x21, [x1,928]
.LBE274:
.LBE273:
	.loc 1 352 0
	bl	del_timer
.LVL158:
	cbz	w0, .L184
	.loc 1 353 0
	mov	x0, x19
	bl	bio_put
.LVL159:
.L171:
	.loc 1 364 0
	ldrb	w0, [x19,300]
	.loc 1 361 0
	str	wzr, [x19,248]
	.loc 1 363 0
	str	xzr, [x19,240]
	.loc 1 364 0
	cbnz	w0, .L185
	.loc 1 371 0
	ldp	x19, x20, [sp,16]
	.cfi_remember_state
	.cfi_restore 20
	.cfi_restore 19
.LVL160:
	ldr	x21, [sp,32]
	.cfi_restore 21
	ldp	x29, x30, [sp], 48
	.cfi_restore 30
	.cfi_restore 29
	.cfi_def_cfa 31, 0
	ret
.LVL161:
.L184:
	.cfi_restore_state
	.loc 1 355 0
	ldr	w0, [x19,248]
	mov	x20, 34463
.LVL162:
	movk	x20, 0x1, lsl 16
	cbnz	w0, .L180
	b	.L171
.L186:
	.loc 1 355 0 is_stmt 0 discriminator 1
	sub	x20, x20, #1
	cmn	x20, #1
	beq	.L171
.L180:
	.loc 1 356 0 is_stmt 1 discriminator 5
	mov	x0, 42950
	bl	__const_udelay
.LVL163:
	.loc 1 355 0
	ldr	w0, [x19,248]
	cbnz	w0, .L186
	.loc 1 358 0
	cbnz	x20, .L171
	.loc 1 358 0 is_stmt 0 discriminator 2
	adrp	x0, .LANCHOR2
	add	x0, x0, :lo12:.LANCHOR2
	add	x0, x0, 912
	bl	__printk_ratelimit
.LVL164:
	.loc 1 358 0 discriminator 1
	cbz	w0, .L171
	.loc 1 359 0 is_stmt 1
	adrp	x0, .LC17
	add	x0, x0, :lo12:.LC17
	bl	printk
.LVL165:
	b	.L171
.L185:
.LBB275:
.LBB276:
.LBB277:
.LBB278:
	.loc 9 191 0
	mov	w0, 1
	bl	ktime_get_with_offset
.LVL166:
.LBE278:
.LBE277:
	.loc 9 244 0 discriminator 1
	bl	ns_to_timespec
.LVL167:
.LBE276:
.LBE275:
.LBB279:
.LBB280:
	.file 10 "/cloud/jenkins/workspace/950_chipset_0425_component/opensource/component_code/vendor/huawei/extra/build/build_script/kirin_kernel_release/kernel/include/linux/time.h"
	.loc 10 219 0
	ldr	x20, [x19,312]
.LVL168:
.LBE280:
.LBE279:
.LBB284:
.LBB285:
	mov	x2, 51712
.LBE285:
.LBE284:
.LBB288:
.LBB281:
	ldr	x4, [x19,304]
	mov	x5, x2
.LBE281:
.LBE288:
.LBB289:
.LBB286:
	movk	x2, 0x3b9a, lsl 16
.LBE286:
.LBE289:
.LBB290:
.LBB282:
	movk	x5, 0x3b9a, lsl 16
.LBE282:
.LBE290:
	.loc 1 367 0
	add	x3, x21, 1424
.LBB291:
.LBB287:
	.loc 10 219 0
	madd	x0, x0, x2, x1
.LBE287:
.LBE291:
.LBB292:
.LBB283:
	madd	x20, x4, x5, x20
.LBE283:
.LBE292:
	.loc 1 367 0
	ldr	w1, [x19,296]
	add	x4, x21, 1208
	.loc 1 366 0
	sub	x20, x0, x20
.LVL169:
	.loc 1 367 0
	ldrb	w0, [x19,300]
	mov	x2, x20
	add	x5, x21, 984
	bl	bio_latency_statistic_calc.isra.2
.LVL170:
	.loc 1 368 0
	add	x5, x21, 4096
	ldr	w1, [x19,296]
	ldr	x2, [x19,320]
	add	x3, x5, 1224
	ldrb	w0, [x19,300]
	add	x4, x5, 1008
	add	x5, x5, 784
	bl	bio_latency_statistic_calc.isra.2
.LVL171:
	.loc 1 369 0
	ldr	x2, [x19,320]
	add	x5, x21, 8192
	ldr	w1, [x19,296]
	add	x3, x5, 1024
	ldrb	w0, [x19,300]
	sub	x2, x20, x2
	add	x4, x5, 808
	add	x5, x5, 584
	bl	bio_latency_statistic_calc.isra.2
.LVL172:
	.loc 1 371 0
	ldr	x21, [sp,32]
	.cfi_restore 21
	ldp	x19, x20, [sp,16]
	.cfi_restore 19
	.cfi_restore 20
.LVL173:
	ldp	x29, x30, [sp], 48
	.cfi_restore 29
	.cfi_restore 30
	.cfi_def_cfa 31, 0
	ret
	.cfi_endproc
.LFE3062:
	.size	bio_latency_endio_func, .-bio_latency_endio_func
	.align	2
	.type	req_latency_rq_start_func, %function
req_latency_rq_start_func:
.LFB3065:
	.loc 1 392 0
	.cfi_startproc
.LVL174:
	stp	x29, x30, [sp, -32]!
	.cfi_def_cfa_offset 32
	.cfi_offset 29, -32
	.cfi_offset 30, -24
	add	x29, sp, 0
	.cfi_def_cfa_register 29
	str	x19, [sp,16]
	.cfi_offset 19, -16
	.loc 1 392 0
	mov	x19, x0
	.loc 1 394 0
	mov	x0, 28570
.LVL175:
	movk	x0, 0x4, lsl 16
	ldr	x1, [x19,64]
	ldr	x2, [x1,432]
	cmp	x2, x0
	beq	.L222
.L189:
	.loc 1 397 0
	ldrb	w0, [x19,225]
	cbnz	w0, .L223
	.loc 1 399 0
	ldr	x19, [sp,16]
	.cfi_remember_state
	.cfi_restore 19
.LVL176:
	ldp	x29, x30, [sp], 32
	.cfi_restore 30
	.cfi_restore 29
	.cfi_def_cfa 31, 0
	ret
.LVL177:
.L222:
	.cfi_restore_state
.LBB301:
.LBB302:
	.loc 1 52 0
	ldr	w0, [x19,96]
	cmp	w0, 1
	bne	.L189
	.loc 1 52 0 is_stmt 0 discriminator 1
	ldr	x0, [x19,88]
	tbnz	x0, 7, .L189
	.loc 1 52 0 discriminator 2
	ldr	w2, [x19,264]
	cbz	w2, .L189
	.loc 1 54 0 is_stmt 1
	tbz	x0, 0, .L191
	.loc 1 55 0
	ldr	x0, [x1,920]
	.loc 1 55 0 is_stmt 0 discriminator 1
	cbz	x0, .L192
	cmp	w2, 131072
	bhi	.L192
	.loc 1 56 0 is_stmt 1 discriminator 7
	bl	__udelay
.LVL178:
	ldr	x1, [x19,64]
.L192:
	.loc 1 57 0
	ldr	x0, [x1,904]
	cbz	x0, .L189
.L221:
	.loc 1 63 0 discriminator 1
	ldr	w1, [x19,264]
	cmp	w1, 131072
	bls	.L189
	.loc 1 64 0 discriminator 7
	bl	__udelay
.LVL179:
	b	.L189
.L223:
.LBE302:
.LBE301:
.LBB304:
.LBB305:
.LBB306:
.LBB307:
	.loc 9 244 0 discriminator 1
	add	x19, x19, 120
.LVL180:
.LBB308:
.LBB309:
	.loc 9 191 0
	mov	w0, 1
	bl	ktime_get_with_offset
.LVL181:
.LBE309:
.LBE308:
	.loc 9 244 0 discriminator 1
	bl	ns_to_timespec
.LVL182:
	stp	x0, x1, [x19]
.LBE307:
.LBE306:
.LBE305:
.LBE304:
	.loc 1 399 0
	ldr	x19, [sp,16]
	.cfi_remember_state
	.cfi_restore 19
	ldp	x29, x30, [sp], 32
	.cfi_restore 29
	.cfi_restore 30
	.cfi_def_cfa 31, 0
	ret
.LVL183:
.L191:
	.cfi_restore_state
.LBB310:
.LBB303:
	.loc 1 61 0
	ldr	x0, [x1,912]
	.loc 1 61 0 is_stmt 0 discriminator 1
	cbz	x0, .L193
	cmp	w2, 131072
	bhi	.L193
	.loc 1 62 0 is_stmt 1 discriminator 7
	bl	__udelay
.LVL184:
	ldr	x1, [x19,64]
.L193:
	.loc 1 63 0
	ldr	x0, [x1,896]
	cbnz	x0, .L221
	b	.L189
.LBE303:
.LBE310:
	.cfi_endproc
.LFE3065:
	.size	req_latency_rq_start_func, .-req_latency_rq_start_func
	.align	2
	.global	blk_queue_usr_ctrl_set
	.type	blk_queue_usr_ctrl_set, %function
blk_queue_usr_ctrl_set:
.LFB3054:
	.loc 1 69 0
	.cfi_startproc
.LVL185:
	mov	x1, x0
	.loc 1 70 0
	mov	x0, 28570
.LVL186:
	.loc 1 69 0
	stp	x29, x30, [sp, -16]!
	.cfi_def_cfa_offset 16
	.cfi_offset 29, -16
	.cfi_offset 30, -8
	.loc 1 70 0
	movk	x0, 0x4, lsl 16
	.loc 1 69 0
	add	x29, sp, 0
	.cfi_def_cfa_register 29
	.loc 1 70 0
	ldr	x2, [x1,432]
	cmp	x2, x0
	beq	.L227
	.loc 1 75 0
	str	xzr, [x1,920]
	.loc 1 76 0
	add	x0, x1, 928
	bl	del_timer_sync
.LVL187:
	.loc 1 78 0
	ldp	x29, x30, [sp], 16
	.cfi_remember_state
	.cfi_restore 30
	.cfi_restore 29
	.cfi_def_cfa 31, 0
	ret
.LVL188:
.L227:
	.cfi_restore_state
	.loc 1 71 0
	mov	x2, 100
	.loc 1 72 0 discriminator 1
	add	x0, x1, 928
	.loc 1 71 0
	str	x2, [x1,920]
	.loc 1 72 0
	adrp	x1, jiffies
.LVL189:
	ldr	x1, [x1,#:lo12:jiffies]
	add	x1, x1, 356352
	.loc 1 72 0 is_stmt 0 discriminator 1
	add	x1, x1, 3648
	bl	mod_timer
.LVL190:
	.loc 1 78 0 is_stmt 1
	ldp	x29, x30, [sp], 16
	.cfi_restore 29
	.cfi_restore 30
	.cfi_def_cfa 31, 0
	ret
	.cfi_endproc
.LFE3054:
	.size	blk_queue_usr_ctrl_set, .-blk_queue_usr_ctrl_set
	.align	2
	.global	req_hw_latency_store_in_bio
	.type	req_hw_latency_store_in_bio, %function
req_hw_latency_store_in_bio:
.LFB3069:
	.loc 1 431 0
	.cfi_startproc
.LVL191:
	.loc 1 432 0
	ldrb	w2, [x1,300]
	cbnz	w2, .L240
.L228:
	.loc 1 434 0
	ret
.L240:
	.loc 1 432 0 discriminator 1
	ldrb	w2, [x0,225]
	cbz	w2, .L228
	.loc 1 433 0
	ldr	x2, [x0,64]
	cbz	x2, .L231
	.loc 1 433 0 is_stmt 0 discriminator 1
	ldrb	w3, [x2,976]
	.loc 1 433 0 discriminator 4
	mov	x2, 0
	.loc 1 433 0 discriminator 1
	cbz	w3, .L230
.LBB311:
.LBB312:
	.loc 10 219 0 is_stmt 1
	mov	x5, 51712
.LBE312:
.LBE311:
.LBB315:
.LBB316:
	ldr	x4, [x0,120]
	mov	x2, x5
	ldr	x6, [x0,128]
.LBE316:
.LBE315:
.LBB318:
.LBB313:
	ldr	x3, [x0,136]
	movk	x5, 0x3b9a, lsl 16
	ldr	x7, [x0,144]
.LBE313:
.LBE318:
.LBB319:
.LBB317:
	movk	x2, 0x3b9a, lsl 16
	madd	x2, x4, x2, x6
.LBE317:
.LBE319:
.LBB320:
.LBB314:
	madd	x0, x3, x5, x7
.LVL192:
.LBE314:
.LBE320:
	.loc 1 433 0 discriminator 3
	sub	x2, x0, x2
.LVL193:
.L230:
	.loc 1 433 0 is_stmt 0 discriminator 7
	str	x2, [x1,320]
.L241:
	.loc 1 434 0 is_stmt 1
	ret
.L231:
	.loc 1 433 0 discriminator 4
	mov	x2, 0
	.loc 1 433 0 is_stmt 0 discriminator 7
	str	x2, [x1,320]
	b	.L241
	.cfi_endproc
.LFE3069:
	.size	req_hw_latency_store_in_bio, .-req_hw_latency_store_in_bio
	.align	2
	.global	req_latency_for_merge
	.type	req_latency_for_merge, %function
req_latency_for_merge:
.LFB3070:
	.loc 1 437 0 is_stmt 1
	.cfi_startproc
.LVL194:
	.loc 1 439 0
	ldr	x1, [x1,280]
.LVL195:
	.loc 1 440 0
	cbz	x1, .L242
.L246:
	.loc 1 441 0
	str	x0, [x1,240]
	.loc 1 442 0
	ldr	x1, [x1]
	.loc 1 440 0
	cbnz	x1, .L246
.L242:
	.loc 1 444 0
	ret
	.cfi_endproc
.LFE3070:
	.size	req_latency_for_merge, .-req_latency_for_merge
	.align	2
	.global	blk_latency_log_init
	.type	blk_latency_log_init, %function
blk_latency_log_init:
.LFB3071:
	.loc 1 447 0
	.cfi_startproc
	stp	x29, x30, [sp, -48]!
	.cfi_def_cfa_offset 48
	.cfi_offset 29, -48
	.cfi_offset 30, -40
	.loc 1 449 0
	mov	w1, 0
	mov	x2, 0
	.loc 1 447 0
	add	x29, sp, 0
	.cfi_def_cfa_register 29
	str	x21, [sp,32]
	.cfi_offset 21, -16
	.loc 1 448 0
	adrp	x21, .LANCHOR1
	.loc 1 447 0
	stp	x19, x20, [sp,16]
	.cfi_offset 19, -32
	.cfi_offset 20, -24
	.loc 1 448 0
	add	x19, x21, :lo12:.LANCHOR1
	.loc 1 449 0
	mov	x3, 0
	add	x20, x19, 32
	mov	x0, x20
	.loc 1 448 0
	strh	wzr, [x19,16]
	strh	wzr, [x19,18]
	.loc 1 449 0
	bl	init_timer_key
.LVL196:
.LBB321:
.LBB322:
.LBB323:
	.loc 2 246 0
	str	wzr, [x19,8]
.LBE323:
.LBE322:
.LBE321:
	.loc 1 450 0
	adrp	x0, blk_latency_protect_timer_expire
.LBB324:
.LBB325:
.LBB326:
	.loc 2 246 0
	str	wzr, [x21,#:lo12:.LANCHOR1]
.LBE326:
.LBE325:
.LBE324:
	.loc 1 450 0
	add	x0, x0, :lo12:blk_latency_protect_timer_expire
.LBB327:
.LBB328:
.LBB329:
	.loc 2 246 0
	str	wzr, [x19,24]
.LBE329:
.LBE328:
.LBE327:
	.loc 1 450 0
	str	x0, [x19,56]
	.loc 1 454 0
	ldr	x21, [sp,32]
	.cfi_restore 21
	ldp	x19, x20, [sp,16]
	.cfi_restore 20
	.cfi_restore 19
	ldp	x29, x30, [sp], 48
	.cfi_restore 30
	.cfi_restore 29
	.cfi_def_cfa 31, 0
	ret
	.cfi_endproc
.LFE3071:
	.size	blk_latency_log_init, .-blk_latency_log_init
	.align	2
	.global	blk_queue_latency_average_calc
	.type	blk_queue_latency_average_calc, %function
blk_queue_latency_average_calc:
.LFB3073:
	.loc 1 471 0
	.cfi_startproc
.LVL197:
	stp	x29, x30, [sp, -32]!
	.cfi_def_cfa_offset 32
	.cfi_offset 29, -32
	.cfi_offset 30, -24
	add	x29, sp, 0
	.cfi_def_cfa_register 29
	str	x19, [sp,16]
	.cfi_offset 19, -16
	.loc 1 471 0
	mov	x19, x0
	.loc 1 472 0
	add	x1, x19, 992
	add	x0, x0, 1424
.LVL198:
	bl	__blk_queue_latency_average_calc
.LVL199:
	.loc 1 473 0
	add	x1, x19, 4096
	add	x0, x1, 1224
	add	x1, x1, 792
	bl	__blk_queue_latency_average_calc
.LVL200:
	.loc 1 474 0
	add	x1, x19, 8192
	add	x0, x1, 1024
	add	x1, x1, 592
	bl	__blk_queue_latency_average_calc
.LVL201:
	.loc 1 475 0
	ldr	x19, [sp,16]
	.cfi_restore 19
.LVL202:
	ldp	x29, x30, [sp], 32
	.cfi_restore 30
	.cfi_restore 29
	.cfi_def_cfa 31, 0
	ret
	.cfi_endproc
.LFE3073:
	.size	blk_queue_latency_average_calc, .-blk_queue_latency_average_calc
	.align	2
	.global	blk_queue_latency_statistic_clear
	.type	blk_queue_latency_statistic_clear, %function
blk_queue_latency_statistic_clear:
.LFB3075:
	.loc 1 488 0
	.cfi_startproc
.LVL203:
	.loc 1 489 0
	mov	x2, 0
	add	x4, x0, 1208
	add	x3, x0, 992
	add	x1, x0, 1424
.L251:
	add	x1, x1, 128
.LBB330:
.LBB331:
	.loc 1 481 0
	str	xzr, [x4,x2]
	str	xzr, [x3,x2]
	add	x2, x2, 8
	.loc 1 480 0 discriminator 1
	cmp	x2, 216
	.loc 1 483 0
	str	xzr, [x1,-128]
	str	xzr, [x1,-120]
	str	xzr, [x1,-112]
	str	xzr, [x1,-104]
	str	xzr, [x1,-96]
	str	xzr, [x1,-88]
	str	xzr, [x1,-80]
	str	xzr, [x1,-72]
	str	xzr, [x1,-64]
	str	xzr, [x1,-56]
	str	xzr, [x1,-48]
	str	xzr, [x1,-40]
	str	xzr, [x1,-32]
	str	xzr, [x1,-24]
	str	xzr, [x1,-16]
	str	xzr, [x1,-8]
	.loc 1 480 0 discriminator 1
	bne	.L251
.LBE331:
.LBE330:
	.loc 1 490 0
	add	x1, x0, 4096
	mov	x2, 0
	add	x4, x1, 1008
	add	x3, x1, 792
	add	x1, x1, 1224
.L252:
	add	x1, x1, 128
.LBB332:
.LBB333:
	.loc 1 481 0
	str	xzr, [x4,x2]
	str	xzr, [x3,x2]
	add	x2, x2, 8
	.loc 1 480 0 discriminator 1
	cmp	x2, 216
	.loc 1 483 0
	str	xzr, [x1,-128]
	str	xzr, [x1,-120]
	str	xzr, [x1,-112]
	str	xzr, [x1,-104]
	str	xzr, [x1,-96]
	str	xzr, [x1,-88]
	str	xzr, [x1,-80]
	str	xzr, [x1,-72]
	str	xzr, [x1,-64]
	str	xzr, [x1,-56]
	str	xzr, [x1,-48]
	str	xzr, [x1,-40]
	str	xzr, [x1,-32]
	str	xzr, [x1,-24]
	str	xzr, [x1,-16]
	str	xzr, [x1,-8]
	.loc 1 480 0 discriminator 1
	bne	.L252
.LBE333:
.LBE332:
	.loc 1 491 0
	add	x0, x0, 8192
.LVL204:
	mov	x1, 0
	add	x3, x0, 808
	add	x2, x0, 592
	add	x0, x0, 1024
.L253:
	add	x0, x0, 128
.LBB334:
.LBB335:
	.loc 1 481 0
	str	xzr, [x3,x1]
	str	xzr, [x2,x1]
	add	x1, x1, 8
	.loc 1 480 0 discriminator 1
	cmp	x1, 216
	.loc 1 483 0
	str	xzr, [x0,-128]
	str	xzr, [x0,-120]
	str	xzr, [x0,-112]
	str	xzr, [x0,-104]
	str	xzr, [x0,-96]
	str	xzr, [x0,-88]
	str	xzr, [x0,-80]
	str	xzr, [x0,-72]
	str	xzr, [x0,-64]
	str	xzr, [x0,-56]
	str	xzr, [x0,-48]
	str	xzr, [x0,-40]
	str	xzr, [x0,-32]
	str	xzr, [x0,-24]
	str	xzr, [x0,-16]
	str	xzr, [x0,-8]
	.loc 1 480 0 discriminator 1
	bne	.L253
.LBE335:
.LBE334:
	.loc 1 492 0
	ret
	.cfi_endproc
.LFE3075:
	.size	blk_queue_latency_statistic_clear, .-blk_queue_latency_statistic_clear
	.align	2
	.global	blk_queue_latency_init
	.type	blk_queue_latency_init, %function
blk_queue_latency_init:
.LFB3076:
	.loc 1 495 0
	.cfi_startproc
.LVL205:
	stp	x29, x30, [sp, -32]!
	.cfi_def_cfa_offset 32
	.cfi_offset 29, -32
	.cfi_offset 30, -24
	.loc 1 501 0
	mov	w1, 0
	mov	x2, 0
	.loc 1 495 0
	add	x29, sp, 0
	.cfi_def_cfa_register 29
	str	x19, [sp,16]
	.cfi_offset 19, -16
	.loc 1 495 0
	mov	x19, x0
	.loc 1 501 0
	mov	x3, 0
	add	x0, x0, 928
.LVL206:
	.loc 1 497 0
	str	xzr, [x19,896]
	.loc 1 498 0
	str	xzr, [x19,904]
	.loc 1 499 0
	str	xzr, [x19,912]
	.loc 1 500 0
	str	xzr, [x19,920]
	.loc 1 501 0
	bl	init_timer_key
.LVL207:
	.loc 1 503 0
	str	x19, [x19,960]
	.loc 1 507 0
	add	x1, x19, 8192
	.loc 1 502 0
	adrp	x0, blk_queue_usr_ctrl_recovery_timer_expire
	.loc 1 505 0
	strh	wzr, [x19,984]
	.loc 1 502 0
	add	x0, x0, :lo12:blk_queue_usr_ctrl_recovery_timer_expire
	.loc 1 505 0
	strh	wzr, [x19,986]
	.loc 1 502 0
	str	x0, [x19,952]
	.loc 1 510 0
	mov	w0, 2000
	.loc 1 506 0
	strh	wzr, [x19,4880]
	strh	wzr, [x19,4882]
	.loc 1 507 0
	strh	wzr, [x1,584]
	strh	wzr, [x1,586]
	.loc 1 508 0
	strb	wzr, [x19,977]
	.loc 1 509 0
	strb	wzr, [x19,976]
	.loc 1 510 0
	str	w0, [x19,980]
	.loc 1 511 0
	ldr	x19, [sp,16]
	.cfi_restore 19
.LVL208:
	ldp	x29, x30, [sp], 32
	.cfi_restore 30
	.cfi_restore 29
	.cfi_def_cfa 31, 0
	ret
	.cfi_endproc
.LFE3076:
	.size	blk_queue_latency_init, .-blk_queue_latency_init
	.align	2
	.global	blk_queue_latency_deinit
	.type	blk_queue_latency_deinit, %function
blk_queue_latency_deinit:
.LFB3077:
	.loc 1 514 0
	.cfi_startproc
.LVL209:
	stp	x29, x30, [sp, -16]!
	.cfi_def_cfa_offset 16
	.cfi_offset 29, -16
	.cfi_offset 30, -8
	.loc 1 516 0
	add	x0, x0, 928
.LVL210:
	.loc 1 514 0
	add	x29, sp, 0
	.cfi_def_cfa_register 29
	.loc 1 516 0
	bl	del_timer_sync
.LVL211:
	.loc 1 518 0
	ldp	x29, x30, [sp], 16
	.cfi_restore 30
	.cfi_restore 29
	.cfi_def_cfa 31, 0
	ret
	.cfi_endproc
.LFE3077:
	.size	blk_queue_latency_deinit, .-blk_queue_latency_deinit
	.global	__ksymtab_req_latency_check
	.global	__ksymtab_bio_latency_check
	.global	latency_grouping_cfg
	.global	length_grouping_cfg
	.global	req_stage_cfg
	.global	bio_stage_cfg
	.section	.rodata
	.align	3
.LANCHOR2 = . + 0
	.type	bio_stage_cfg, %object
	.size	bio_stage_cfg, 64
bio_stage_cfg:
	.xword	.LC10
	.xword	bio_latency_submit_func
	.xword	.LC11
	.xword	bio_latency_endio_func
	.xword	.LC12
	.xword	0
	.xword	.LC13
	.xword	0
	.type	req_stage_cfg, %object
	.size	req_stage_cfg, 144
req_stage_cfg:
	.xword	.LC46
	.xword	req_latency_init_from_bio_func
	.xword	.LC47
	.xword	req_latency_rq_start_func
	.xword	.LC48
	.xword	req_latency_rq_complete_func
	.xword	.LC49
	.xword	req_latency_rq_free_func
	.xword	.LC50
	.xword	0
	.xword	.LC51
	.xword	0
	.xword	.LC52
	.xword	0
	.xword	.LC53
	.xword	0
	.xword	.LC54
	.xword	0
	.type	__func__.37713, %object
	.size	__func__.37713, 31
__func__.37713:
	.string	"bio_latency_check_timer_expire"
	.zero	1
	.type	length_grouping_cfg, %object
	.size	length_grouping_cfg, 672
length_grouping_cfg:
	.byte	1
	.zero	3
	.word	1
	.word	0
	.zero	4
	.xword	.LC18
	.byte	1
	.zero	3
	.word	2
	.word	1
	.zero	4
	.xword	.LC19
	.byte	1
	.zero	3
	.word	4
	.word	2
	.zero	4
	.xword	.LC20
	.byte	1
	.zero	3
	.word	8
	.word	3
	.zero	4
	.xword	.LC21
	.byte	1
	.zero	3
	.word	16
	.word	4
	.zero	4
	.xword	.LC22
	.byte	1
	.zero	3
	.word	32
	.word	5
	.zero	4
	.xword	.LC23
	.byte	1
	.zero	3
	.word	64
	.word	6
	.zero	4
	.xword	.LC24
	.byte	1
	.zero	3
	.word	128
	.word	7
	.zero	4
	.xword	.LC25
	.byte	1
	.zero	3
	.word	256
	.word	8
	.zero	4
	.xword	.LC26
	.byte	2
	.zero	3
	.word	1
	.word	9
	.zero	4
	.xword	.LC27
	.byte	2
	.zero	3
	.word	2
	.word	10
	.zero	4
	.xword	.LC28
	.byte	2
	.zero	3
	.word	4
	.word	11
	.zero	4
	.xword	.LC29
	.byte	2
	.zero	3
	.word	8
	.word	12
	.zero	4
	.xword	.LC30
	.byte	2
	.zero	3
	.word	16
	.word	13
	.zero	4
	.xword	.LC31
	.byte	2
	.zero	3
	.word	32
	.word	14
	.zero	4
	.xword	.LC32
	.byte	2
	.zero	3
	.word	64
	.word	15
	.zero	4
	.xword	.LC33
	.byte	2
	.zero	3
	.word	128
	.word	16
	.zero	4
	.xword	.LC34
	.byte	2
	.zero	3
	.word	256
	.word	17
	.zero	4
	.xword	.LC35
	.byte	3
	.zero	3
	.word	1
	.word	18
	.zero	4
	.xword	.LC36
	.byte	3
	.zero	3
	.word	32
	.word	19
	.zero	4
	.xword	.LC37
	.byte	3
	.zero	3
	.word	256
	.word	20
	.zero	4
	.xword	.LC38
	.byte	3
	.zero	3
	.word	512
	.word	21
	.zero	4
	.xword	.LC39
	.byte	3
	.zero	3
	.word	2048
	.word	22
	.zero	4
	.xword	.LC40
	.byte	3
	.zero	3
	.word	4096
	.word	23
	.zero	4
	.xword	.LC41
	.byte	3
	.zero	3
	.word	8192
	.word	24
	.zero	4
	.xword	.LC42
	.byte	3
	.zero	3
	.word	0
	.word	25
	.zero	4
	.xword	.LC43
	.byte	4
	.zero	3
	.word	0
	.word	26
	.zero	4
	.xword	.LC44
	.byte	0
	.zero	3
	.word	0
	.word	27
	.zero	4
	.xword	.LC45
	.type	__func__.37793, %object
	.size	__func__.37793, 23
__func__.37793:
	.string	"bio_latency_endio_func"
	.section	___ksymtab+req_latency_check,"a",%progbits
	.align	3
	.type	__ksymtab_req_latency_check, %object
	.size	__ksymtab_req_latency_check, 16
__ksymtab_req_latency_check:
	.xword	req_latency_check
	.xword	__kstrtab_req_latency_check
	.section	__ksymtab_strings,"a",%progbits
	.type	__kstrtab_req_latency_check, %object
	.size	__kstrtab_req_latency_check, 18
__kstrtab_req_latency_check:
	.string	"req_latency_check"
	.type	__kstrtab_bio_latency_check, %object
	.size	__kstrtab_bio_latency_check, 18
__kstrtab_bio_latency_check:
	.string	"bio_latency_check"
	.data
	.align	3
.LANCHOR0 = . + 0
	.type	latency_grouping_cfg, %object
	.size	latency_grouping_cfg, 128
latency_grouping_cfg:
	.xword	10
	.xword	25
	.xword	50
	.xword	100
	.xword	150
	.xword	200
	.xword	300
	.xword	500
	.xword	1000
	.xword	2500
	.xword	5000
	.xword	7500
	.xword	10000
	.xword	15000
	.xword	50000
	.xword	0
	.section	___ksymtab+bio_latency_check,"a",%progbits
	.align	3
	.type	__ksymtab_bio_latency_check, %object
	.size	__ksymtab_bio_latency_check, 16
__ksymtab_bio_latency_check:
	.xword	bio_latency_check
	.xword	__kstrtab_bio_latency_check
	.section	___kcrctab+bio_latency_check,"a",%progbits
	.align	3
	.type	__kcrctab_bio_latency_check, %object
	.size	__kcrctab_bio_latency_check, 8
__kcrctab_bio_latency_check:
	.xword	__crc_bio_latency_check
	.section	.rodata.str1.8,"aMS",%progbits,1
	.align	3
.LC0:
	.string	"\0010io-latency: skip %d latency logs !!\r\n"
.LC1:
	.string	"-"
	.zero	6
.LC2:
	.string	"\0014%s %d Invalid from_submit_bio_flag: 0x%x\n"
	.zero	4
.LC3:
	.string	"io-latency: "
	.zero	3
.LC4:
	.string	"[%s]: %s(0x%lx) length = %u, current = %llu, total %d ios reach the warning throttle "
	.zero	2
.LC5:
	.string	"\0010%s \r\n"
.LC6:
	.string	"io count = %d read inflight = %d write inflight = %d"
	.zero	3
.LC7:
	.string	"Submit PID: %d <%s>, BIO: %p, task: %p"
	.zero	1
.LC8:
	.string	"Submit PID: -, BIO: %p, task: %p"
	.zero	7
.LC9:
	.string	"<%s:%llu> "
	.zero	5
.LC10:
	.string	"BIO_SUBMIT"
	.zero	5
.LC11:
	.string	"BIO_END"
.LC12:
	.string	"BIO_CGT_DONE"
	.zero	3
.LC13:
	.string	"BIO_WBT_DONE"
	.zero	3
.LC14:
	.string	"Dispatch PID: %d <%s>, REQ: %p, task: %p"
	.zero	7
.LC15:
	.string	"Dispatch PID: -, REQ: %p, task: %p"
	.zero	5
.LC16:
	.string	"\r\n requeue_reason = %d rq_hoq_flag = %d rq_cp_flag = %d"
.LC17:
	.string	"\0013Failed to wait io latency timer finished!"
	.zero	4
.LC18:
	.string	"R4K"
	.zero	4
.LC19:
	.string	"R8K"
	.zero	4
.LC20:
	.string	"R16K"
	.zero	3
.LC21:
	.string	"R32K"
	.zero	3
.LC22:
	.string	"R64K"
	.zero	3
.LC23:
	.string	"R128K"
	.zero	2
.LC24:
	.string	"R256K"
	.zero	2
.LC25:
	.string	"R512K"
	.zero	2
.LC26:
	.string	"R1M"
	.zero	4
.LC27:
	.string	"W4K"
	.zero	4
.LC28:
	.string	"W8K"
	.zero	4
.LC29:
	.string	"W16K"
	.zero	3
.LC30:
	.string	"W32K"
	.zero	3
.LC31:
	.string	"W64K"
	.zero	3
.LC32:
	.string	"W128K"
	.zero	2
.LC33:
	.string	"W256K"
	.zero	2
.LC34:
	.string	"W512K"
	.zero	2
.LC35:
	.string	"W1M"
	.zero	4
.LC36:
	.string	"D4K"
	.zero	4
.LC37:
	.string	"D128K"
	.zero	2
.LC38:
	.string	"D1M"
	.zero	4
.LC39:
	.string	"D2M"
	.zero	4
.LC40:
	.string	"D8M"
	.zero	4
.LC41:
	.string	"D16M"
	.zero	3
.LC42:
	.string	"D32M"
	.zero	3
.LC43:
	.string	"D--"
	.zero	4
.LC44:
	.string	"F"
	.zero	6
.LC45:
	.string	""
	.zero	7
.LC46:
	.string	"REQ_INIT"
	.zero	7
.LC47:
	.string	"REQ_RQ_START"
	.zero	3
.LC48:
	.string	"REQ_RQ_COMPLETE"
.LC49:
	.string	"REQ_RQ_FREE"
	.zero	4
.LC50:
	.string	"REQ_MQ_ADDTO_PLUGLIST"
	.zero	2
.LC51:
	.string	"REQ_MQ_FLUSH_PLUGLIST"
	.zero	2
.LC52:
	.string	"REQ_MQ_ADDTO_SYNC_LIST"
	.zero	1
.LC53:
	.string	"REQ_MQ_ADDTO_ASYNC_LIST"
.LC54:
	.string	"REQ_MQ_QUEUE_RQ"
	.section	___kcrctab+req_latency_check,"a",%progbits
	.align	3
	.type	__kcrctab_req_latency_check, %object
	.size	__kcrctab_req_latency_check, 8
__kcrctab_req_latency_check:
	.xword	__crc_req_latency_check
	.bss
	.align	3
.LANCHOR1 = . + 0
	.type	latency_log_skip_count, %object
	.size	latency_log_skip_count, 4
latency_log_skip_count:
	.zero	4
	.zero	4
	.type	latency_log_count, %object
	.size	latency_log_count, 4
latency_log_count:
	.zero	4
	.zero	4
	.type	latency_log_protect_lock, %object
	.size	latency_log_protect_lock, 4
latency_log_protect_lock:
	.zero	4
	.zero	4
	.type	latency_warning_total, %object
	.size	latency_warning_total, 4
latency_warning_total:
	.zero	4
	.zero	4
	.type	latency_log_protect_timer, %object
	.size	latency_log_protect_timer, 48
latency_log_protect_timer:
	.zero	48
	.weak	__crc_req_latency_check
	.weak	__crc_bio_latency_check
	.text
.Letext0:
	.file 11 "/cloud/jenkins/workspace/950_chipset_0425_component/opensource/component_code/vendor/huawei/extra/build/build_script/kirin_kernel_release/kernel/include/uapi/asm-generic/int-ll64.h"
	.file 12 "/cloud/jenkins/workspace/950_chipset_0425_component/opensource/component_code/vendor/huawei/extra/build/build_script/kirin_kernel_release/kernel/include/asm-generic/int-ll64.h"
	.file 13 "/cloud/jenkins/workspace/950_chipset_0425_component/opensource/component_code/vendor/huawei/extra/build/build_script/kirin_kernel_release/kernel/include/uapi/asm-generic/posix_types.h"
	.file 14 "/cloud/jenkins/workspace/950_chipset_0425_component/opensource/component_code/vendor/huawei/extra/build/build_script/kirin_kernel_release/kernel/include/linux/export.h"
	.file 15 "/cloud/jenkins/workspace/950_chipset_0425_component/opensource/component_code/vendor/huawei/extra/build/build_script/kirin_kernel_release/kernel/include/linux/types.h"
	.file 16 "/cloud/jenkins/workspace/950_chipset_0425_component/opensource/component_code/vendor/huawei/extra/build/build_script/kirin_kernel_release/kernel/include/linux/capability.h"
	.file 17 "/cloud/jenkins/workspace/950_chipset_0425_component/opensource/component_code/vendor/huawei/extra/build/build_script/kirin_kernel_release/kernel/include/asm-generic/bug.h"
	.file 18 "/cloud/jenkins/workspace/950_chipset_0425_component/opensource/component_code/vendor/huawei/extra/build/build_script/kirin_kernel_release/kernel/include/linux/thread_info.h"
	.file 19 "/cloud/jenkins/workspace/950_chipset_0425_component/opensource/component_code/vendor/huawei/extra/build/build_script/kirin_kernel_release/kernel/include/uapi/linux/time.h"
	.file 20 "/cloud/jenkins/workspace/950_chipset_0425_component/opensource/component_code/vendor/huawei/extra/build/build_script/kirin_kernel_release/kernel/arch/arm64/include/asm/compat.h"
	.file 21 "/cloud/jenkins/workspace/950_chipset_0425_component/opensource/component_code/vendor/huawei/extra/build/build_script/kirin_kernel_release/kernel/include/uapi/asm-generic/poll.h"
	.file 22 "/cloud/jenkins/workspace/950_chipset_0425_component/opensource/component_code/vendor/huawei/extra/build/build_script/kirin_kernel_release/kernel/include/linux/sched.h"
	.file 23 "/cloud/jenkins/workspace/950_chipset_0425_component/opensource/component_code/vendor/huawei/extra/build/build_script/kirin_kernel_release/kernel/arch/arm64/include/uapi/asm/ptrace.h"
	.file 24 "/cloud/jenkins/workspace/950_chipset_0425_component/opensource/component_code/vendor/huawei/extra/build/build_script/kirin_kernel_release/kernel/arch/arm64/include/asm/spinlock_types.h"
	.file 25 "/cloud/jenkins/workspace/950_chipset_0425_component/opensource/component_code/vendor/huawei/extra/build/build_script/kirin_kernel_release/kernel/include/linux/spinlock_types.h"
	.file 26 "/cloud/jenkins/workspace/950_chipset_0425_component/opensource/component_code/vendor/huawei/extra/build/build_script/kirin_kernel_release/kernel/include/linux/rwlock_types.h"
	.file 27 "/cloud/jenkins/workspace/950_chipset_0425_component/opensource/component_code/vendor/huawei/extra/build/build_script/kirin_kernel_release/kernel/arch/arm64/include/asm/fpsimd.h"
	.file 28 "/cloud/jenkins/workspace/950_chipset_0425_component/opensource/component_code/vendor/huawei/extra/build/build_script/kirin_kernel_release/kernel/arch/arm64/include/asm/processor.h"
	.file 29 "/cloud/jenkins/workspace/950_chipset_0425_component/opensource/component_code/vendor/huawei/extra/build/build_script/kirin_kernel_release/kernel/include/asm-generic/atomic-long.h"
	.file 30 "/cloud/jenkins/workspace/950_chipset_0425_component/opensource/component_code/vendor/huawei/extra/build/build_script/kirin_kernel_release/kernel/include/linux/seqlock.h"
	.file 31 "/cloud/jenkins/workspace/950_chipset_0425_component/opensource/component_code/vendor/huawei/extra/build/build_script/kirin_kernel_release/kernel/include/linux/plist.h"
	.file 32 "/cloud/jenkins/workspace/950_chipset_0425_component/opensource/component_code/vendor/huawei/extra/build/build_script/kirin_kernel_release/kernel/include/linux/cpumask.h"
	.file 33 "/cloud/jenkins/workspace/950_chipset_0425_component/opensource/component_code/vendor/huawei/extra/build/build_script/kirin_kernel_release/kernel/include/linux/wait.h"
	.file 34 "/cloud/jenkins/workspace/950_chipset_0425_component/opensource/component_code/vendor/huawei/extra/build/build_script/kirin_kernel_release/kernel/include/linux/completion.h"
	.file 35 "/cloud/jenkins/workspace/950_chipset_0425_component/opensource/component_code/vendor/huawei/extra/build/build_script/kirin_kernel_release/kernel/include/linux/ktime.h"
	.file 36 "/cloud/jenkins/workspace/950_chipset_0425_component/opensource/component_code/vendor/huawei/extra/build/build_script/kirin_kernel_release/kernel/include/linux/rbtree.h"
	.file 37 "/cloud/jenkins/workspace/950_chipset_0425_component/opensource/component_code/vendor/huawei/extra/build/build_script/kirin_kernel_release/kernel/include/linux/nodemask.h"
	.file 38 "/cloud/jenkins/workspace/950_chipset_0425_component/opensource/component_code/vendor/huawei/extra/build/build_script/kirin_kernel_release/kernel/include/linux/osq_lock.h"
	.file 39 "/cloud/jenkins/workspace/950_chipset_0425_component/opensource/component_code/vendor/huawei/extra/build/build_script/kirin_kernel_release/kernel/include/linux/rwsem.h"
	.file 40 "/cloud/jenkins/workspace/950_chipset_0425_component/opensource/component_code/vendor/huawei/extra/build/build_script/kirin_kernel_release/kernel/include/linux/mm_types.h"
	.file 41 "/cloud/jenkins/workspace/950_chipset_0425_component/opensource/component_code/vendor/huawei/extra/build/build_script/kirin_kernel_release/kernel/include/linux/lockdep.h"
	.file 42 "/cloud/jenkins/workspace/950_chipset_0425_component/opensource/component_code/vendor/huawei/extra/build/build_script/kirin_kernel_release/kernel/include/linux/uprobes.h"
	.file 43 "/cloud/jenkins/workspace/950_chipset_0425_component/opensource/component_code/vendor/huawei/extra/build/build_script/kirin_kernel_release/kernel/include/linux/timer.h"
	.file 44 "/cloud/jenkins/workspace/950_chipset_0425_component/opensource/component_code/vendor/huawei/extra/build/build_script/kirin_kernel_release/kernel/include/linux/workqueue.h"
	.file 45 "/cloud/jenkins/workspace/950_chipset_0425_component/opensource/component_code/vendor/huawei/extra/build/build_script/kirin_kernel_release/kernel/arch/arm64/include/asm/pgtable-types.h"
	.file 46 "/cloud/jenkins/workspace/950_chipset_0425_component/opensource/component_code/vendor/huawei/extra/build/build_script/kirin_kernel_release/kernel/arch/arm64/include/asm/mmu.h"
	.file 47 "/cloud/jenkins/workspace/950_chipset_0425_component/opensource/component_code/vendor/huawei/extra/build/build_script/kirin_kernel_release/kernel/include/linux/fs.h"
	.file 48 "/cloud/jenkins/workspace/950_chipset_0425_component/opensource/component_code/vendor/huawei/extra/build/build_script/kirin_kernel_release/kernel/include/linux/mm.h"
	.file 49 "/cloud/jenkins/workspace/950_chipset_0425_component/opensource/component_code/vendor/huawei/extra/build/build_script/kirin_kernel_release/kernel/include/linux/blk-cgroup.h"
	.file 50 "/cloud/jenkins/workspace/950_chipset_0425_component/opensource/component_code/vendor/huawei/extra/build/build_script/kirin_kernel_release/kernel/include/asm-generic/cputime_jiffies.h"
	.file 51 "/cloud/jenkins/workspace/950_chipset_0425_component/opensource/component_code/vendor/huawei/extra/build/build_script/kirin_kernel_release/kernel/include/linux/llist.h"
	.file 52 "/cloud/jenkins/workspace/950_chipset_0425_component/opensource/component_code/vendor/huawei/extra/build/build_script/kirin_kernel_release/kernel/include/linux/smp.h"
	.file 53 "/cloud/jenkins/workspace/950_chipset_0425_component/opensource/component_code/vendor/huawei/extra/build/build_script/kirin_kernel_release/kernel/arch/arm64/include/asm/smp.h"
	.file 54 "/cloud/jenkins/workspace/950_chipset_0425_component/opensource/component_code/vendor/huawei/extra/build/build_script/kirin_kernel_release/kernel/include/linux/uidgid.h"
	.file 55 "/cloud/jenkins/workspace/950_chipset_0425_component/opensource/component_code/vendor/huawei/extra/build/build_script/kirin_kernel_release/kernel/include/uapi/asm-generic/signal.h"
	.file 56 "/cloud/jenkins/workspace/950_chipset_0425_component/opensource/component_code/vendor/huawei/extra/build/build_script/kirin_kernel_release/kernel/include/uapi/asm-generic/signal-defs.h"
	.file 57 "/cloud/jenkins/workspace/950_chipset_0425_component/opensource/component_code/vendor/huawei/extra/build/build_script/kirin_kernel_release/kernel/include/uapi/asm-generic/siginfo.h"
	.file 58 "/cloud/jenkins/workspace/950_chipset_0425_component/opensource/component_code/vendor/huawei/extra/build/build_script/kirin_kernel_release/kernel/include/linux/signal.h"
	.file 59 "/cloud/jenkins/workspace/950_chipset_0425_component/opensource/component_code/vendor/huawei/extra/build/build_script/kirin_kernel_release/kernel/include/linux/pid.h"
	.file 60 "/cloud/jenkins/workspace/950_chipset_0425_component/opensource/component_code/vendor/huawei/extra/build/build_script/kirin_kernel_release/kernel/include/linux/mmzone.h"
	.file 61 "/cloud/jenkins/workspace/950_chipset_0425_component/opensource/component_code/vendor/huawei/extra/build/build_script/kirin_kernel_release/kernel/include/linux/mutex.h"
	.file 62 "/cloud/jenkins/workspace/950_chipset_0425_component/opensource/component_code/vendor/huawei/extra/build/build_script/kirin_kernel_release/kernel/include/linux/notifier.h"
	.file 63 "/cloud/jenkins/workspace/950_chipset_0425_component/opensource/component_code/vendor/huawei/extra/build/build_script/kirin_kernel_release/kernel/include/linux/percpu_counter.h"
	.file 64 "/cloud/jenkins/workspace/950_chipset_0425_component/opensource/component_code/vendor/huawei/extra/build/build_script/kirin_kernel_release/kernel/include/linux/seccomp.h"
	.file 65 "/cloud/jenkins/workspace/950_chipset_0425_component/opensource/component_code/vendor/huawei/extra/build/build_script/kirin_kernel_release/kernel/include/uapi/linux/resource.h"
	.file 66 "/cloud/jenkins/workspace/950_chipset_0425_component/opensource/component_code/vendor/huawei/extra/build/build_script/kirin_kernel_release/kernel/include/linux/timerqueue.h"
	.file 67 "/cloud/jenkins/workspace/950_chipset_0425_component/opensource/component_code/vendor/huawei/extra/build/build_script/kirin_kernel_release/kernel/include/linux/hrtimer.h"
	.file 68 "/cloud/jenkins/workspace/950_chipset_0425_component/opensource/component_code/vendor/huawei/extra/build/build_script/kirin_kernel_release/kernel/include/linux/task_io_accounting.h"
	.file 69 "/cloud/jenkins/workspace/950_chipset_0425_component/opensource/component_code/vendor/huawei/extra/build/build_script/kirin_kernel_release/kernel/include/linux/assoc_array.h"
	.file 70 "/cloud/jenkins/workspace/950_chipset_0425_component/opensource/component_code/vendor/huawei/extra/build/build_script/kirin_kernel_release/kernel/include/linux/key.h"
	.file 71 "/cloud/jenkins/workspace/950_chipset_0425_component/opensource/component_code/vendor/huawei/extra/build/build_script/kirin_kernel_release/kernel/include/linux/cred.h"
	.file 72 "/cloud/jenkins/workspace/950_chipset_0425_component/opensource/component_code/vendor/huawei/extra/build/build_script/kirin_kernel_release/kernel/include/linux/idr.h"
	.file 73 "/cloud/jenkins/workspace/950_chipset_0425_component/opensource/component_code/vendor/huawei/extra/build/build_script/kirin_kernel_release/kernel/include/linux/percpu-refcount.h"
	.file 74 "/cloud/jenkins/workspace/950_chipset_0425_component/opensource/component_code/vendor/huawei/extra/build/build_script/kirin_kernel_release/kernel/include/linux/rcu_sync.h"
	.file 75 "/cloud/jenkins/workspace/950_chipset_0425_component/opensource/component_code/vendor/huawei/extra/build/build_script/kirin_kernel_release/kernel/include/linux/percpu-rwsem.h"
	.file 76 "/cloud/jenkins/workspace/950_chipset_0425_component/opensource/component_code/vendor/huawei/extra/build/build_script/kirin_kernel_release/kernel/include/linux/cgroup-defs.h"
	.file 77 "/cloud/jenkins/workspace/950_chipset_0425_component/opensource/component_code/vendor/huawei/extra/build/build_script/kirin_kernel_release/kernel/include/linux/kernfs.h"
	.file 78 "/cloud/jenkins/workspace/950_chipset_0425_component/opensource/component_code/vendor/huawei/extra/build/build_script/kirin_kernel_release/kernel/include/linux/seq_file.h"
	.file 79 "/cloud/jenkins/workspace/950_chipset_0425_component/opensource/component_code/vendor/huawei/extra/build/build_script/kirin_kernel_release/kernel/include/uapi/linux/taskstats.h"
	.file 80 "/cloud/jenkins/workspace/950_chipset_0425_component/opensource/component_code/vendor/huawei/extra/build/build_script/kirin_kernel_release/kernel/include/linux/swap.h"
	.file 81 "/cloud/jenkins/workspace/950_chipset_0425_component/opensource/component_code/vendor/huawei/extra/build/build_script/kirin_kernel_release/kernel/include/linux/backing-dev-defs.h"
	.file 82 "/cloud/jenkins/workspace/950_chipset_0425_component/opensource/component_code/vendor/huawei/extra/build/build_script/kirin_kernel_release/kernel/include/linux/iocontext.h"
	.file 83 "/cloud/jenkins/workspace/950_chipset_0425_component/opensource/component_code/vendor/huawei/extra/build/build_script/kirin_kernel_release/kernel/include/linux/compat.h"
	.file 84 "/cloud/jenkins/workspace/950_chipset_0425_component/opensource/component_code/vendor/huawei/extra/build/build_script/kirin_kernel_release/kernel/include/linux/stat.h"
	.file 85 "/cloud/jenkins/workspace/950_chipset_0425_component/opensource/component_code/vendor/huawei/extra/build/build_script/kirin_kernel_release/kernel/include/uapi/linux/elf.h"
	.file 86 "/cloud/jenkins/workspace/950_chipset_0425_component/opensource/component_code/vendor/huawei/extra/build/build_script/kirin_kernel_release/kernel/include/linux/kobject_ns.h"
	.file 87 "/cloud/jenkins/workspace/950_chipset_0425_component/opensource/component_code/vendor/huawei/extra/build/build_script/kirin_kernel_release/kernel/include/linux/sysfs.h"
	.file 88 "/cloud/jenkins/workspace/950_chipset_0425_component/opensource/component_code/vendor/huawei/extra/build/build_script/kirin_kernel_release/kernel/include/linux/kobject.h"
	.file 89 "/cloud/jenkins/workspace/950_chipset_0425_component/opensource/component_code/vendor/huawei/extra/build/build_script/kirin_kernel_release/kernel/include/linux/kref.h"
	.file 90 "/cloud/jenkins/workspace/950_chipset_0425_component/opensource/component_code/vendor/huawei/extra/build/build_script/kirin_kernel_release/kernel/include/linux/moduleparam.h"
	.file 91 "/cloud/jenkins/workspace/950_chipset_0425_component/opensource/component_code/vendor/huawei/extra/build/build_script/kirin_kernel_release/kernel/include/linux/module.h"
	.file 92 "/cloud/jenkins/workspace/950_chipset_0425_component/opensource/component_code/vendor/huawei/extra/build/build_script/kirin_kernel_release/kernel/include/linux/jump_label.h"
	.file 93 "/cloud/jenkins/workspace/950_chipset_0425_component/opensource/component_code/vendor/huawei/extra/build/build_script/kirin_kernel_release/kernel/include/linux/rbtree_latch.h"
	.file 94 "/cloud/jenkins/workspace/950_chipset_0425_component/opensource/component_code/vendor/huawei/extra/build/build_script/kirin_kernel_release/kernel/arch/arm64/include/asm/module.h"
	.file 95 "/cloud/jenkins/workspace/950_chipset_0425_component/opensource/component_code/vendor/huawei/extra/build/build_script/kirin_kernel_release/kernel/arch/arm64/include/asm/uaccess.h"
	.file 96 "/cloud/jenkins/workspace/950_chipset_0425_component/opensource/component_code/vendor/huawei/extra/build/build_script/kirin_kernel_release/kernel/include/linux/tracepoint.h"
	.file 97 "/cloud/jenkins/workspace/950_chipset_0425_component/opensource/component_code/vendor/huawei/extra/build/build_script/kirin_kernel_release/kernel/include/linux/list_bl.h"
	.file 98 "/cloud/jenkins/workspace/950_chipset_0425_component/opensource/component_code/vendor/huawei/extra/build/build_script/kirin_kernel_release/kernel/include/linux/lockref.h"
	.file 99 "/cloud/jenkins/workspace/950_chipset_0425_component/opensource/component_code/vendor/huawei/extra/build/build_script/kirin_kernel_release/kernel/include/linux/dcache.h"
	.file 100 "/cloud/jenkins/workspace/950_chipset_0425_component/opensource/component_code/vendor/huawei/extra/build/build_script/kirin_kernel_release/kernel/include/linux/path.h"
	.file 101 "/cloud/jenkins/workspace/950_chipset_0425_component/opensource/component_code/vendor/huawei/extra/build/build_script/kirin_kernel_release/kernel/include/linux/shrinker.h"
	.file 102 "/cloud/jenkins/workspace/950_chipset_0425_component/opensource/component_code/vendor/huawei/extra/build/build_script/kirin_kernel_release/kernel/include/linux/list_lru.h"
	.file 103 "/cloud/jenkins/workspace/950_chipset_0425_component/opensource/component_code/vendor/huawei/extra/build/build_script/kirin_kernel_release/kernel/include/linux/radix-tree.h"
	.file 104 "/cloud/jenkins/workspace/950_chipset_0425_component/opensource/component_code/vendor/huawei/extra/build/build_script/kirin_kernel_release/kernel/include/uapi/linux/fiemap.h"
	.file 105 "/cloud/jenkins/workspace/950_chipset_0425_component/opensource/component_code/vendor/huawei/extra/build/build_script/kirin_kernel_release/kernel/include/linux/migrate_mode.h"
	.file 106 "/cloud/jenkins/workspace/950_chipset_0425_component/opensource/component_code/vendor/huawei/extra/build/build_script/kirin_kernel_release/kernel/include/linux/blk_types.h"
	.file 107 "/cloud/jenkins/workspace/950_chipset_0425_component/opensource/component_code/vendor/huawei/extra/build/build_script/kirin_kernel_release/kernel/include/linux/quota.h"
	.file 108 "/cloud/jenkins/workspace/950_chipset_0425_component/opensource/component_code/vendor/huawei/extra/build/build_script/kirin_kernel_release/kernel/include/linux/projid.h"
	.file 109 "/cloud/jenkins/workspace/950_chipset_0425_component/opensource/component_code/vendor/huawei/extra/build/build_script/kirin_kernel_release/kernel/include/linux/writeback.h"
	.file 110 "/cloud/jenkins/workspace/950_chipset_0425_component/opensource/component_code/vendor/huawei/extra/build/build_script/kirin_kernel_release/kernel/include/linux/uio.h"
	.file 111 "/cloud/jenkins/workspace/950_chipset_0425_component/opensource/component_code/vendor/huawei/extra/build/build_script/kirin_kernel_release/kernel/include/linux/genhd.h"
	.file 112 "/cloud/jenkins/workspace/950_chipset_0425_component/opensource/component_code/vendor/huawei/extra/build/build_script/kirin_kernel_release/kernel/include/linux/nfs_fs_i.h"
	.file 113 "/cloud/jenkins/workspace/950_chipset_0425_component/opensource/component_code/vendor/huawei/extra/build/build_script/kirin_kernel_release/kernel/include/linux/poll.h"
	.file 114 "/cloud/jenkins/workspace/950_chipset_0425_component/opensource/component_code/vendor/huawei/extra/build/build_script/kirin_kernel_release/kernel/include/linux/klist.h"
	.file 115 "/cloud/jenkins/workspace/950_chipset_0425_component/opensource/component_code/vendor/huawei/extra/build/build_script/kirin_kernel_release/kernel/include/linux/pinctrl/devinfo.h"
	.file 116 "/cloud/jenkins/workspace/950_chipset_0425_component/opensource/component_code/vendor/huawei/extra/build/build_script/kirin_kernel_release/kernel/include/linux/pm.h"
	.file 117 "/cloud/jenkins/workspace/950_chipset_0425_component/opensource/component_code/vendor/huawei/extra/build/build_script/kirin_kernel_release/kernel/include/linux/device.h"
	.file 118 "/cloud/jenkins/workspace/950_chipset_0425_component/opensource/component_code/vendor/huawei/extra/build/build_script/kirin_kernel_release/kernel/include/linux/pm_wakeup.h"
	.file 119 "/cloud/jenkins/workspace/950_chipset_0425_component/opensource/component_code/vendor/huawei/extra/build/build_script/kirin_kernel_release/kernel/arch/arm64/include/asm/device.h"
	.file 120 "/cloud/jenkins/workspace/950_chipset_0425_component/opensource/component_code/vendor/huawei/extra/build/build_script/kirin_kernel_release/kernel/include/linux/dma-mapping.h"
	.file 121 "/cloud/jenkins/workspace/950_chipset_0425_component/opensource/component_code/vendor/huawei/extra/build/build_script/kirin_kernel_release/kernel/include/linux/vmstat.h"
	.file 122 "/cloud/jenkins/workspace/950_chipset_0425_component/opensource/component_code/vendor/huawei/extra/build/build_script/kirin_kernel_release/kernel/include/linux/flex_proportions.h"
	.file 123 "/cloud/jenkins/workspace/950_chipset_0425_component/opensource/component_code/vendor/huawei/extra/build/build_script/kirin_kernel_release/kernel/include/linux/mempool.h"
	.file 124 "/cloud/jenkins/workspace/950_chipset_0425_component/opensource/component_code/vendor/huawei/extra/build/build_script/kirin_kernel_release/kernel/include/linux/bsg.h"
	.file 125 "/cloud/jenkins/workspace/950_chipset_0425_component/opensource/component_code/vendor/huawei/extra/build/build_script/kirin_kernel_release/kernel/include/linux/wbt.h"
	.file 126 "/cloud/jenkins/workspace/950_chipset_0425_component/opensource/component_code/vendor/huawei/extra/build/build_script/kirin_kernel_release/kernel/include/linux/scatterlist.h"
	.file 127 "/cloud/jenkins/workspace/950_chipset_0425_component/opensource/component_code/vendor/huawei/extra/build/build_script/kirin_kernel_release/kernel/block/blk-mq.h"
	.file 128 "/cloud/jenkins/workspace/950_chipset_0425_component/opensource/component_code/vendor/huawei/extra/build/build_script/kirin_kernel_release/kernel/include/linux/elevator.h"
	.file 129 "/cloud/jenkins/workspace/950_chipset_0425_component/opensource/component_code/vendor/huawei/extra/build/build_script/kirin_kernel_release/kernel/include/linux/blk-mq.h"
	.file 130 "/cloud/jenkins/workspace/950_chipset_0425_component/opensource/component_code/vendor/huawei/extra/build/build_script/kirin_kernel_release/kernel/block/blk.h"
	.file 131 "/cloud/jenkins/workspace/950_chipset_0425_component/opensource/component_code/vendor/huawei/extra/build/build_script/kirin_kernel_release/kernel/include/linux/interrupt.h"
	.file 132 "/cloud/jenkins/workspace/950_chipset_0425_component/opensource/component_code/vendor/huawei/extra/build/build_script/kirin_kernel_release/kernel/include/linux/kernel_stat.h"
	.file 133 "/cloud/jenkins/workspace/950_chipset_0425_component/opensource/component_code/vendor/huawei/extra/build/build_script/kirin_kernel_release/kernel/include/uapi/linux/uio.h"
	.file 134 "/cloud/jenkins/workspace/950_chipset_0425_component/opensource/component_code/vendor/huawei/extra/build/build_script/kirin_kernel_release/kernel/include/linux/dma-attrs.h"
	.file 135 "/cloud/jenkins/workspace/950_chipset_0425_component/opensource/component_code/vendor/huawei/extra/build/build_script/kirin_kernel_release/kernel/include/linux/dma-direction.h"
	.file 136 "/cloud/jenkins/workspace/950_chipset_0425_component/opensource/component_code/vendor/huawei/extra/build/build_script/kirin_kernel_release/kernel/include/scsi/scsi_device.h"
	.file 137 "/cloud/jenkins/workspace/950_chipset_0425_component/opensource/component_code/vendor/huawei/extra/build/build_script/kirin_kernel_release/kernel/arch/arm64/include/asm/cachetype.h"
	.file 138 "/cloud/jenkins/workspace/950_chipset_0425_component/opensource/component_code/vendor/huawei/extra/build/build_script/kirin_kernel_release/kernel/include/linux/printk.h"
	.file 139 "/cloud/jenkins/workspace/950_chipset_0425_component/opensource/component_code/vendor/huawei/extra/build/build_script/kirin_kernel_release/kernel/include/linux/kernel.h"
	.file 140 "/cloud/jenkins/workspace/950_chipset_0425_component/opensource/component_code/vendor/huawei/extra/build/build_script/kirin_kernel_release/kernel/arch/arm64/include/asm/hwcap.h"
	.file 141 "/cloud/jenkins/workspace/950_chipset_0425_component/opensource/component_code/vendor/huawei/extra/build/build_script/kirin_kernel_release/kernel/arch/arm64/include/asm/cpufeature.h"
	.file 142 "/cloud/jenkins/workspace/950_chipset_0425_component/opensource/component_code/vendor/huawei/extra/build/build_script/kirin_kernel_release/kernel/arch/arm64/include/asm/memory.h"
	.file 143 "/cloud/jenkins/workspace/950_chipset_0425_component/opensource/component_code/vendor/huawei/extra/build/build_script/kirin_kernel_release/kernel/include/linux/highuid.h"
	.file 144 "/cloud/jenkins/workspace/950_chipset_0425_component/opensource/component_code/vendor/huawei/extra/build/build_script/kirin_kernel_release/kernel/include/asm-generic/percpu.h"
	.file 145 "/cloud/jenkins/workspace/950_chipset_0425_component/opensource/component_code/vendor/huawei/extra/build/build_script/kirin_kernel_release/kernel/include/linux/slab.h"
	.file 146 "/cloud/jenkins/workspace/950_chipset_0425_component/opensource/component_code/vendor/huawei/extra/build/build_script/kirin_kernel_release/kernel/include/linux/debug_locks.h"
	.file 147 "/cloud/jenkins/workspace/950_chipset_0425_component/opensource/component_code/vendor/huawei/extra/build/build_script/kirin_kernel_release/kernel/include/asm-generic/pgtable.h"
	.file 148 "/cloud/jenkins/workspace/950_chipset_0425_component/opensource/component_code/vendor/huawei/extra/build/build_script/kirin_kernel_release/kernel/arch/arm64/include/asm/irq.h"
	.file 149 "/cloud/jenkins/workspace/950_chipset_0425_component/opensource/component_code/vendor/huawei/extra/build/build_script/kirin_kernel_release/kernel/arch/arm64/include/asm/hardirq.h"
	.file 150 "/cloud/jenkins/workspace/950_chipset_0425_component/opensource/component_code/vendor/huawei/extra/build/build_script/kirin_kernel_release/kernel/include/linux/cgroup.h"
	.file 151 "/cloud/jenkins/workspace/950_chipset_0425_component/opensource/component_code/vendor/huawei/extra/build/build_script/kirin_kernel_release/kernel/include/linux/backing-dev.h"
	.file 152 "/cloud/jenkins/workspace/950_chipset_0425_component/opensource/component_code/vendor/huawei/extra/build/build_script/kirin_kernel_release/kernel/include/linux/pm_runtime.h"
	.file 153 "/cloud/jenkins/workspace/950_chipset_0425_component/opensource/component_code/vendor/huawei/extra/build/build_script/kirin_kernel_release/kernel/include/trace/events/block.h"
	.file 154 "/cloud/jenkins/workspace/950_chipset_0425_component/opensource/component_code/vendor/huawei/extra/build/build_script/kirin_kernel_release/kernel/arch/arm64/include/../../arm/include/asm/xen/hypervisor.h"
	.file 155 "/cloud/jenkins/workspace/950_chipset_0425_component/opensource/component_code/vendor/huawei/extra/build/build_script/kirin_kernel_release/kernel/arch/arm64/include/asm/dma-mapping.h"
	.file 156 "/cloud/jenkins/workspace/950_chipset_0425_component/opensource/component_code/vendor/huawei/extra/build/build_script/kirin_kernel_release/kernel/include/scsi/scsi_common.h"
	.file 157 "/cloud/jenkins/workspace/950_chipset_0425_component/opensource/component_code/vendor/huawei/extra/build/build_script/kirin_kernel_release/kernel/include/linux/spinlock_api_smp.h"
	.file 158 "/cloud/jenkins/workspace/950_chipset_0425_component/opensource/component_code/vendor/huawei/extra/build/build_script/kirin_kernel_release/kernel/include/chipset_common/hwzrhung/zrhung_wp_io.h"
	.file 159 "/cloud/jenkins/workspace/950_chipset_0425_component/opensource/component_code/vendor/huawei/extra/build/build_script/kirin_kernel_release/kernel/include/asm-generic/delay.h"
	.section	.note.GNU-stack,"",%progbits
