	.cpu generic+fp+simd
	.file	"hisi-blk-core.c"
	.text
.Ltext0:
	.cfi_sections	.debug_frame
#APP
	.irp	num,0,1,2,3,4,5,6,7,8,9,10,11,12,13,14,15,16,17,18,19,20,21,22,23,24,25,26,27,28,29,30
	.equ	.L__reg_num_x\num, \num
	.endr
	.equ	.L__reg_num_xzr, 31

	.macro	mrs_s, rt, sreg
	.inst	0xd5200000|(\sreg)|(.L__reg_num_\rt)
	.endm

	.macro	msr_s, sreg, rt
	.inst	0xd5000000|(\sreg)|(.L__reg_num_\rt)
	.endm

#NO_APP
	.align	2
	.type	blk_busy_idle_handler_latency_check_timer_expire, %function
blk_busy_idle_handler_latency_check_timer_expire:
.LFB2801:
	.file 1 "/cloud/jenkins/workspace/950_chipset_0425_component/opensource/component_code/vendor/huawei/extra/build/build_script/kirin_kernel_release/kernel/block/hisi-blk-core.c"
	.loc 1 134 0
	.cfi_startproc
.LVL0:
	stp	x29, x30, [sp, -16]!
	.cfi_def_cfa_offset 16
	.cfi_offset 29, -16
	.cfi_offset 30, -8
	.loc 1 137 0
	adrp	x1, .LANCHOR0
	mov	w3, 1000
	.loc 1 134 0
	add	x29, sp, 0
	.cfi_def_cfa_register 29
	.loc 1 137 0
	ldr	x2, [x0]
	adrp	x0, .LC0
.LVL1:
	add	x1, x1, :lo12:.LANCHOR0
	add	x0, x0, :lo12:.LC0
	bl	printk
.LVL2:
	.loc 1 139 0
	ldp	x29, x30, [sp], 16
	.cfi_restore 30
	.cfi_restore 29
	.cfi_def_cfa 31, 0
	ret
	.cfi_endproc
.LFE2801:
	.size	blk_busy_idle_handler_latency_check_timer_expire, .-blk_busy_idle_handler_latency_check_timer_expire
	.align	2
	.type	blk_busy_idle_notify_handler, %function
blk_busy_idle_notify_handler:
.LFB2802:
	.loc 1 142 0
	.cfi_startproc
.LVL3:
	stp	x29, x30, [sp, -80]!
	.cfi_def_cfa_offset 80
	.cfi_offset 29, -80
	.cfi_offset 30, -72
	add	x29, sp, 0
	.cfi_def_cfa_register 29
	stp	x19, x20, [sp,16]
	.cfi_offset 19, -64
	.cfi_offset 20, -56
.LBB162:
	.loc 1 146 0
	sub	x19, x0, #64
.LVL4:
.LBE162:
	.loc 1 142 0
	mov	x20, x1
	stp	x23, x24, [sp,48]
	stp	x21, x22, [sp,32]
	.cfi_offset 23, -32
	.cfi_offset 24, -24
	.cfi_offset 21, -48
	.cfi_offset 22, -40
	.loc 1 142 0
	mov	x23, x0
	.loc 1 147 0
	ldr	x0, [x19,88]
.LVL5:
	cbz	x0, .L18
	.loc 1 156 0
	bl	ktime_get
.LVL6:
	.loc 1 157 0
	add	x22, x19, 16
	adrp	x1, jiffies
	.loc 1 156 0
	mov	x21, x0
.LVL7:
	.loc 1 157 0 discriminator 1
	mov	x0, x22
	.loc 1 157 0 is_stmt 0
	ldr	x1, [x1,#:lo12:jiffies]
	.loc 1 157 0 discriminator 1
	add	x1, x1, 100
	bl	mod_timer
.LVL8:
	.loc 1 158 0 is_stmt 1
	cbz	x20, .L6
	cmp	x20, 1
	beq	.L19
.L13:
	.loc 1 144 0
	mov	w20, 0
.LVL9:
	.loc 1 143 0
	mov	w24, 0
.LVL10:
.L5:
	.loc 1 183 0
	mov	x0, x22
.LBB163:
.LBB164:
	.file 2 "/cloud/jenkins/workspace/950_chipset_0425_component/opensource/component_code/vendor/huawei/extra/build/build_script/kirin_kernel_release/kernel/include/linux/ktime.h"
	.loc 2 233 0
	add	x19, x21, 9998336
.LVL11:
	add	x19, x19, 1664
.LBE164:
.LBE163:
	.loc 1 183 0
	bl	del_timer_sync
.LVL12:
	.loc 1 184 0
	bl	ktime_get
.LVL13:
.LBB165:
.LBB166:
.LBB167:
	.loc 2 146 0
	cmp	x19, x0
	bge	.L10
.LBE167:
.LBE166:
.LBE165:
	.loc 1 185 0
	ldr	x2, [x23,-64]
	str	x2, [x29,72]
	bl	ktime_get
.LVL14:
	sub	x21, x0, x21
.LVL15:
.LBB168:
.LBB169:
.LBB170:
	.loc 2 202 0
	mov	x3, 13531
.LBE170:
.LBE169:
.LBE168:
	.loc 1 185 0 discriminator 2
	adrp	x1, .LANCHOR0
.LBB179:
.LBB175:
.LBB171:
	.loc 2 202 0
	movk	x3, 0xd7b6, lsl 16
.LBE171:
.LBE175:
.LBE179:
	.loc 1 185 0 discriminator 2
	adrp	x0, .LC3
.LBB180:
.LBB176:
.LBB172:
	.loc 2 202 0
	movk	x3, 0xde82, lsl 32
.LBE172:
.LBE176:
.LBE180:
	.loc 1 185 0 discriminator 2
	add	x1, x1, :lo12:.LANCHOR0
.LBB181:
.LBB177:
.LBB173:
	.loc 2 202 0
	movk	x3, 0x431b, lsl 48
.LBE173:
.LBE177:
.LBE181:
	.loc 1 185 0 discriminator 2
	ldr	x2, [x29,72]
	add	x0, x0, :lo12:.LC3
	add	x1, x1, 56
.LBB182:
.LBB178:
.LBB174:
	.loc 2 202 0
	smulh	x3, x21, x3
	asr	x3, x3, 18
.LBE174:
.LBE178:
.LBE182:
	.loc 1 185 0 discriminator 2
	sub	x3, x3, x21, asr 63
	bl	printk
.LVL16:
.L10:
	.loc 1 186 0
	cmp	w24, 2
	beq	.L20
.L15:
	.loc 1 193 0
	mov	w0, w20
.LVL17:
	ldp	x19, x20, [sp,16]
	.cfi_remember_state
	.cfi_restore 20
	.cfi_restore 19
	ldp	x21, x22, [sp,32]
	.cfi_restore 22
	.cfi_restore 21
.LVL18:
	ldp	x23, x24, [sp,48]
	.cfi_restore 24
	.cfi_restore 23
.LVL19:
	ldp	x29, x30, [sp], 80
	.cfi_restore 30
	.cfi_restore 29
	.cfi_def_cfa 31, 0
	ret
.LVL20:
.L19:
	.cfi_restore_state
	.loc 1 160 0
	ldr	w0, [x19,104]
	cbnz	w0, .L13
	.loc 1 161 0
	ldr	x2, [x19,88]
	mov	x0, x19
	mov	w1, w20
	blr	x2
.LVL21:
	.loc 1 162 0
	str	w20, [x19,104]
.LVL22:
	.loc 1 163 0
	cmp	w0, 1
	.loc 1 161 0
	mov	w24, w0
.LVL23:
	.loc 1 163 0
	beq	.L21
	.loc 1 168 0
	str	xzr, [x19,120]
	.loc 1 144 0
	mov	w20, 0
.LVL24:
	b	.L5
.LVL25:
.L6:
	.loc 1 172 0
	ldr	w0, [x19,104]
	cmp	w0, 1
	bne	.L13
	.loc 1 173 0
	ldr	x2, [x19,88]
	mov	x0, x19
	mov	w1, 0
	.loc 1 144 0
	mov	w20, 0
.LVL26:
	.loc 1 173 0
	blr	x2
.LVL27:
	.loc 1 174 0
	str	wzr, [x19,104]
	.loc 1 173 0
	mov	w24, w0
.LVL28:
	b	.L5
.LVL29:
.L21:
	.loc 1 165 0
	ldr	x0, [x19,120]
	.loc 1 164 0
	mov	w20, 32769
.LVL30:
	.loc 1 165 0
	add	x0, x0, 1
	str	x0, [x19,120]
	b	.L5
.LVL31:
.L18:
	.loc 1 148 0
	adrp	x1, .LANCHOR0
	ldr	x2, [x23,-64]
.LVL32:
	adrp	x0, .LC1
	add	x1, x1, :lo12:.LANCHOR0
	add	x1, x1, 56
	mov	x3, 0
	add	x0, x0, :lo12:.LC1
	.loc 1 153 0
	mov	w20, 0
.LVL33:
	.loc 1 148 0
	bl	printk
.LVL34:
	.loc 1 193 0
	mov	w0, w20
	ldp	x19, x20, [sp,16]
	.cfi_remember_state
	.cfi_restore 19
	.cfi_restore 20
.LVL35:
	ldp	x21, x22, [sp,32]
	.cfi_restore 21
	.cfi_restore 22
	ldp	x23, x24, [sp,48]
	.cfi_restore 23
	.cfi_restore 24
.LVL36:
	ldp	x29, x30, [sp], 80
	.cfi_restore 29
	.cfi_restore 30
	.cfi_def_cfa 31, 0
	ret
.LVL37:
.L20:
	.cfi_restore_state
	.loc 1 187 0
	adrp	x1, .LANCHOR0
	ldr	x2, [x23,-64]
	adrp	x0, .LC2
	add	x1, x1, :lo12:.LANCHOR0
	add	x1, x1, 56
	add	x0, x0, :lo12:.LC2
	bl	printk
.LVL38:
	b	.L15
	.cfi_endproc
.LFE2802:
	.size	blk_busy_idle_notify_handler, .-blk_busy_idle_notify_handler
	.align	2
	.type	blk_idle_notify_work, %function
blk_idle_notify_work:
.LFB2806:
	.loc 1 266 0
	.cfi_startproc
.LVL39:
	stp	x29, x30, [sp, -48]!
	.cfi_def_cfa_offset 48
	.cfi_offset 29, -48
	.cfi_offset 30, -40
	add	x29, sp, 0
	.cfi_def_cfa_register 29
	stp	x19, x20, [sp,16]
	str	x21, [sp,32]
	.cfi_offset 19, -32
	.cfi_offset 20, -24
	.cfi_offset 21, -16
	.loc 1 266 0
	mov	x19, x0
.LBB183:
.LBB184:
	.loc 1 120 0
	ldr	w0, [x0,-24]
.LVL40:
	cmp	w0, 1
	beq	.L24
	cbz	w0, .L25
	cmp	w0, 2
	beq	.L26
	.loc 1 130 0
	mov	x20, 0
.L23:
.LBE184:
.LBE183:
	.loc 1 271 0
	add	x21, x19, 168
	mov	x0, x21
	bl	mutex_lock
.LVL41:
.LBB188:
.LBB189:
.LBB190:
	.file 3 "/cloud/jenkins/workspace/950_chipset_0425_component/opensource/component_code/vendor/huawei/extra/build/build_script/kirin_kernel_release/kernel/include/linux/compiler.h"
	.loc 3 218 0 discriminator 4
	ldr	w0, [x19,164]
.LBE190:
.LBE189:
.LBE188:
	.loc 1 272 0 discriminator 5
	cbnz	w0, .L27
	.loc 1 272 0 is_stmt 0 discriminator 6
	ldr	w0, [x19,216]
	cmp	w0, 1
	beq	.L27
	.loc 1 274 0 is_stmt 1
	ldr	x0, [x19,256]
	.loc 1 273 0
	mov	w1, 1
	str	w1, [x19,216]
	.loc 1 274 0
	add	x0, x0, 1
	str	x0, [x19,256]
	.loc 1 275 0
	bl	ktime_get
.LVL42:
	str	x0, [x19,224]
	ldr	x1, [x19,232]
.LVL43:
	.loc 1 276 0
	cbnz	x1, .L38
.L28:
	.loc 1 278 0
	add	x0, x19, 104
	mov	x1, 1
.LVL44:
	mov	x2, x20
	bl	blocking_notifier_call_chain
.LVL45:
.L27:
	.loc 1 280 0
	mov	x0, x21
	bl	mutex_unlock
.LVL46:
	.loc 1 281 0
	ldr	x21, [sp,32]
	.cfi_remember_state
	.cfi_restore 21
	ldp	x19, x20, [sp,16]
	.cfi_restore 20
	.cfi_restore 19
.LVL47:
	ldp	x29, x30, [sp], 48
	.cfi_restore 30
	.cfi_restore 29
	.cfi_def_cfa 31, 0
	ret
.LVL48:
.L26:
	.cfi_restore_state
.LBB191:
.LBB187:
.LBB185:
	.loc 1 128 0
	ldr	x0, [x19,-16]
	ldr	x20, [x0,120]
	sub	x20, x20, #12288
	sub	x20, x20, #1360
	b	.L23
.L25:
.LBE185:
	.loc 1 122 0
	ldr	x20, [x19,-16]
	b	.L23
.L24:
.LBB186:
	.loc 1 125 0
	ldr	x0, [x19,-16]
	ldr	x20, [x0,104]
	sub	x20, x20, #12288
	sub	x20, x20, #1360
	b	.L23
.LVL49:
.L38:
.LBE186:
.LBE187:
.LBE191:
	.loc 1 277 0
	ldr	x2, [x19,240]
	sub	x0, x0, x1
	add	x1, x2, x0
.LVL50:
	str	x1, [x19,240]
	b	.L28
	.cfi_endproc
.LFE2806:
	.size	blk_idle_notify_work, .-blk_idle_notify_work
	.align	2
	.type	blk_end_rq, %function
blk_end_rq:
.LFB2811:
	.loc 1 402 0
	.cfi_startproc
.LVL51:
	stp	x29, x30, [sp, -64]!
	.cfi_def_cfa_offset 64
	.cfi_offset 29, -64
	.cfi_offset 30, -56
	add	x29, sp, 0
	.cfi_def_cfa_register 29
	stp	x19, x20, [sp,16]
	str	x21, [sp,32]
	.cfi_offset 19, -48
	.cfi_offset 20, -40
	.cfi_offset 21, -32
	.loc 1 402 0
	mov	x20, x0
	mov	w21, w1
	.loc 1 403 0
	ldr	x19, [x0,64]
.LBB192:
.LBB193:
	.loc 1 110 0
	ldr	x0, [x19,256]
.LVL52:
	cbz	x0, .L40
	.loc 1 111 0
	ldr	x0, [x19,13640]
	.loc 1 111 0 is_stmt 0 discriminator 1
	add	x19, x19, 584
	add	x2, x0, 128
	cmp	x0, xzr
	csel	x19, x19, x2, eq
.L42:
.LBE193:
.LBE192:
	.loc 1 404 0 is_stmt 1
	ldrb	w0, [x19,184]
	cbz	w0, .L45
.LBB195:
.LBB196:
.LBB197:
.LBB198:
.LBB199:
	.loc 3 218 0 discriminator 4
	ldr	w0, [x19,188]
.LBE199:
.LBE198:
.LBE197:
	.loc 1 285 0 discriminator 5
	cbz	w0, .L52
.LBB200:
.LBB201:
	.file 4 "/cloud/jenkins/workspace/950_chipset_0425_component/opensource/component_code/vendor/huawei/extra/build/build_script/kirin_kernel_release/kernel/arch/arm64/include/asm/atomic_ll_sc.h"
	.loc 4 91 0
	add	x2, x19, 188
#APP
// 91 "/cloud/jenkins/workspace/950_chipset_0425_component/opensource/component_code/vendor/huawei/extra/build/build_script/kirin_kernel_release/kernel/arch/arm64/include/asm/atomic_ll_sc.h" 1
	// atomic_sub_return
	prfm	pstl1strm, [x2]
1:	ldxr	w0, [x2]
	sub	w0, w0, 1
	stlxr	w1, w0, [x2]
	cbnz	w1, 1b
	dmb ish
// 0 "" 2
.LVL53:
#NO_APP
.LBE201:
.LBE200:
	.loc 1 293 0
	cbz	w0, .L53
.LVL54:
.L45:
.LBE196:
.LBE195:
	.loc 1 419 0
	ldr	x2, [x20,536]
	cbz	x2, .L39
	.loc 1 420 0
	mov	x0, x20
.LVL55:
	mov	w1, w21
.LVL56:
	blr	x2
.LVL57:
.L39:
	.loc 1 421 0
	ldp	x19, x20, [sp,16]
	.cfi_remember_state
	.cfi_restore 20
	.cfi_restore 19
.LVL58:
	ldr	x21, [sp,32]
	.cfi_restore 21
.LVL59:
	ldp	x29, x30, [sp], 64
	.cfi_restore 30
	.cfi_restore 29
	.cfi_def_cfa 31, 0
	ret
.LVL60:
.L40:
	.cfi_restore_state
.LBB209:
.LBB194:
	.loc 1 113 0
	ldr	x0, [x19,12896]
	.loc 1 113 0 is_stmt 0 discriminator 1
	add	x19, x19, 584
	add	x2, x0, 112
	cmp	x0, xzr
	csel	x19, x19, x2, eq
	b	.L42
.L52:
.LBE194:
.LBE209:
.LBB210:
.LBB208:
	.loc 1 286 0 is_stmt 1
	adrp	x1, .LANCHOR0
	adrp	x0, .LC4
	add	x1, x1, :lo12:.LANCHOR0
	add	x0, x0, :lo12:.LC4
	add	x1, x1, 88
	bl	printk
.LVL61:
	b	.L45
.LVL62:
.L53:
	.loc 1 294 0
	adrp	x1, .LANCHOR1
.LVL63:
.LBB202:
.LBB203:
	.file 5 "/cloud/jenkins/workspace/950_chipset_0425_component/opensource/component_code/vendor/huawei/extra/build/build_script/kirin_kernel_release/kernel/include/linux/jiffies.h"
	.loc 5 361 0
	ldr	w0, [x19,120]
.LVL64:
.LBE203:
.LBE202:
	.loc 1 294 0
	ldr	x1, [x1,#:lo12:.LANCHOR1]
	str	x1, [x29,56]
.LBB205:
.LBB204:
	.loc 5 361 0
	bl	__msecs_to_jiffies
.LVL65:
	mov	x3, x0
.LBE204:
.LBE205:
.LBB206:
.LBB207:
	.file 6 "/cloud/jenkins/workspace/950_chipset_0425_component/opensource/component_code/vendor/huawei/extra/build/build_script/kirin_kernel_release/kernel/include/linux/workqueue.h"
	.loc 6 487 0
	ldr	x1, [x29,56]
	add	x2, x19, 24
	mov	w0, 8
	bl	queue_delayed_work_on
.LVL66:
	b	.L45
.LBE207:
.LBE206:
.LBE208:
.LBE210:
	.cfi_endproc
.LFE2811:
	.size	blk_end_rq, .-blk_end_rq
	.align	2
	.global	blk_get_lld
	.type	blk_get_lld, %function
blk_get_lld:
.LFB2799:
	.loc 1 109 0
	.cfi_startproc
.LVL67:
	.loc 1 110 0
	ldr	x1, [x0,256]
	cbz	x1, .L55
	.loc 1 111 0
	ldr	x1, [x0,13640]
	cbz	x1, .L56
	.loc 1 111 0 is_stmt 0 discriminator 1
	add	x0, x1, 128
.LVL68:
	.loc 1 114 0 is_stmt 1
	ret
.LVL69:
.L56:
	.loc 1 111 0 discriminator 2
	add	x0, x0, 584
.LVL70:
	.loc 1 114 0
	ret
.LVL71:
.L55:
	.loc 1 113 0
	ldr	x2, [x0,12896]
	cbz	x2, .L56
	.loc 1 113 0 is_stmt 0 discriminator 1
	add	x0, x2, 112
.LVL72:
	.loc 1 114 0 is_stmt 1
	ret
	.cfi_endproc
.LFE2799:
	.size	blk_get_lld, .-blk_get_lld
	.align	2
	.global	blk_get_queue_by_lld
	.type	blk_get_queue_by_lld, %function
blk_get_queue_by_lld:
.LFB2800:
	.loc 1 117 0
	.cfi_startproc
.LVL73:
	.loc 1 120 0
	ldr	w1, [x0]
	cmp	w1, 1
	beq	.L66
	cbz	w1, .L67
	cmp	w1, 2
	bne	.L72
.LBB211:
	.loc 1 128 0
	ldr	x0, [x0,8]
.LVL74:
	ldr	x0, [x0,120]
	sub	x0, x0, #12288
	sub	x0, x0, #1360
.LBE211:
	.loc 1 131 0
	ret
.LVL75:
.L72:
	.loc 1 130 0
	mov	x0, 0
.LVL76:
	.loc 1 131 0
	ret
.LVL77:
.L67:
	.loc 1 122 0
	ldr	x0, [x0,8]
.LVL78:
	.loc 1 131 0
	ret
.LVL79:
.L66:
.LBB212:
	.loc 1 125 0
	ldr	x0, [x0,8]
.LVL80:
	ldr	x0, [x0,104]
	sub	x0, x0, #12288
	sub	x0, x0, #1360
.LBE212:
	.loc 1 131 0
	ret
	.cfi_endproc
.LFE2800:
	.size	blk_get_queue_by_lld, .-blk_get_queue_by_lld
	.align	2
	.global	blk_busy_idle_event_register
	.type	blk_busy_idle_event_register, %function
blk_busy_idle_event_register:
.LFB2803:
	.loc 1 196 0
	.cfi_startproc
.LVL81:
	stp	x29, x30, [sp, -48]!
	.cfi_def_cfa_offset 48
	.cfi_offset 29, -48
	.cfi_offset 30, -40
	add	x29, sp, 0
	.cfi_def_cfa_register 29
	str	x19, [sp,16]
	.cfi_offset 19, -32
	.loc 1 196 0
	mov	x19, x1
.LBB213:
.LBB214:
	.loc 1 110 0
	ldr	x1, [x0,256]
.LVL82:
	cbz	x1, .L74
	.loc 1 111 0
	ldr	x4, [x0,13640]
	cbz	x4, .L75
	.loc 1 111 0 is_stmt 0 discriminator 1
	add	x4, x4, 128
.L76:
.LBE214:
.LBE213:
	.loc 1 198 0 is_stmt 1
	ldr	x2, [x19]
	cbz	x2, .L77
	.loc 1 198 0 is_stmt 0 discriminator 1
	ldr	x0, [x19,88]
.LVL83:
	cbz	x0, .L77
	.loc 1 208 0 is_stmt 1
	ldr	x0, [x19,64]
	adrp	x5, blk_busy_idle_notify_handler
	add	x5, x5, :lo12:blk_busy_idle_notify_handler
	cmp	x0, x5
	bne	.L80
	.loc 1 209 0
	ldr	x3, [x19,8]
	.loc 1 219 0
	mov	w0, 0
	.loc 1 209 0
	cmp	x3, x4
	bne	.L91
.L79:
	.loc 1 233 0
	ldr	x19, [sp,16]
	.cfi_remember_state
	.cfi_restore 19
.LVL84:
	ldp	x29, x30, [sp], 48
	.cfi_restore 30
	.cfi_restore 29
	.cfi_def_cfa 31, 0
	ret
.LVL85:
.L75:
	.cfi_restore_state
.LBB216:
.LBB215:
	.loc 1 111 0 discriminator 2
	add	x4, x0, 584
	b	.L76
.L74:
	.loc 1 113 0
	ldr	x4, [x0,12896]
	cbz	x4, .L75
	.loc 1 113 0 is_stmt 0 discriminator 1
	add	x4, x4, 112
	b	.L76
.L77:
.LBE215:
.LBE216:
	.loc 1 199 0 is_stmt 1
	adrp	x1, .LANCHOR0
	ldr	x3, [x19,88]
	add	x1, x1, :lo12:.LANCHOR0
	adrp	x0, .LC5
.LVL86:
	add	x1, x1, 104
	add	x0, x0, :lo12:.LC5
	bl	printk
.LVL87:
	.loc 1 204 0
	bl	dump_stack
.LVL88:
	.loc 1 205 0
	mov	w0, -22
	b	.L79
.L91:
	.loc 1 210 0
	adrp	x1, .LANCHOR0
	adrp	x0, .LC6
	add	x1, x1, :lo12:.LANCHOR0
	add	x0, x0, :lo12:.LC6
	add	x1, x1, 104
	bl	printk
.LVL89:
	.loc 1 215 0
	bl	dump_stack
.LVL90:
	.loc 1 216 0
	mov	w0, -1
	b	.L79
.L80:
	.loc 1 223 0
	mov	x3, 0
	.loc 1 221 0
	str	x5, [x19,64]
	.loc 1 223 0
	mov	x2, 0
	add	x0, x19, 16
	mov	w1, 0
	.loc 1 222 0
	str	wzr, [x19,80]
	str	x4, [x29,40]
	.loc 1 223 0
	bl	init_timer_key
.LVL91:
	.loc 1 224 0
	str	x19, [x19,48]
	.loc 1 229 0
	ldr	x4, [x29,40]
	.loc 1 225 0
	adrp	x0, blk_busy_idle_handler_latency_check_timer_expire
	add	x0, x0, :lo12:blk_busy_idle_handler_latency_check_timer_expire
	.loc 1 227 0
	mov	w2, 1
	.loc 1 229 0
	add	x1, x19, 64
	.loc 1 225 0
	str	x0, [x19,40]
	.loc 1 226 0
	str	x4, [x19,8]
	.loc 1 229 0
	add	x0, x4, 128
	.loc 1 227 0
	str	w2, [x19,104]
	.loc 1 228 0
	str	xzr, [x19,120]
	.loc 1 229 0
	bl	blocking_notifier_chain_register
.LVL92:
	.loc 1 231 0
	ldr	x1, [x19]
	adrp	x0, .LC7
	add	x0, x0, :lo12:.LC7
	bl	printk
.LVL93:
	.loc 1 232 0
	mov	w0, 0
	b	.L79
	.cfi_endproc
.LFE2803:
	.size	blk_busy_idle_event_register, .-blk_busy_idle_event_register
	.align	2
	.global	blk_busy_idle_event_unregister
	.type	blk_busy_idle_event_unregister, %function
blk_busy_idle_event_unregister:
.LFB2804:
	.loc 1 236 0
	.cfi_startproc
.LVL94:
	stp	x29, x30, [sp, -32]!
	.cfi_def_cfa_offset 32
	.cfi_offset 29, -32
	.cfi_offset 30, -24
	add	x29, sp, 0
	.cfi_def_cfa_register 29
	str	x19, [sp,16]
	.cfi_offset 19, -16
.LBB217:
.LBB218:
	.loc 1 110 0
	ldr	x2, [x0,256]
	cbz	x2, .L93
	.loc 1 111 0
	ldr	x3, [x0,13640]
	cbz	x3, .L94
	.loc 1 111 0 is_stmt 0 discriminator 1
	add	x0, x3, 128
.LVL95:
.L95:
.LBE218:
.LBE217:
	.loc 1 238 0 is_stmt 1
	ldr	x3, [x1,64]
	adrp	x2, blk_busy_idle_notify_handler
	add	x2, x2, :lo12:blk_busy_idle_notify_handler
	cmp	x3, x2
	bne	.L98
	.loc 1 240 0
	ldr	x4, [x1,8]
	mov	x19, x1
	cmp	x4, x0
	bne	.L105
	.loc 1 250 0
	add	x1, x1, 64
.LVL96:
	add	x0, x0, 128
	bl	blocking_notifier_chain_unregister
.LVL97:
	.loc 1 251 0
	str	xzr, [x19]
	.loc 1 255 0
	adrp	x0, .LC9
	.loc 1 252 0
	str	xzr, [x19,64]
	.loc 1 255 0
	add	x0, x0, :lo12:.LC9
	mov	x1, 0
	.loc 1 253 0
	str	xzr, [x19,8]
	.loc 1 255 0
	bl	printk
.LVL98:
	.loc 1 256 0
	mov	w0, 0
.L96:
	.loc 1 257 0
	ldr	x19, [sp,16]
	.cfi_remember_state
	.cfi_restore 19
.LVL99:
	ldp	x29, x30, [sp], 32
	.cfi_restore 30
	.cfi_restore 29
	.cfi_def_cfa 31, 0
	ret
.LVL100:
.L98:
	.cfi_restore_state
	.loc 1 239 0
	mov	w0, -22
	.loc 1 257 0
	ldr	x19, [sp,16]
	.cfi_remember_state
	.cfi_restore 19
	ldp	x29, x30, [sp], 32
	.cfi_restore 29
	.cfi_restore 30
	.cfi_def_cfa 31, 0
	ret
.LVL101:
.L94:
	.cfi_restore_state
.LBB220:
.LBB219:
	.loc 1 111 0 discriminator 2
	add	x0, x0, 584
.LVL102:
	b	.L95
.LVL103:
.L93:
	.loc 1 113 0
	ldr	x19, [x0,12896]
	cbz	x19, .L94
	.loc 1 113 0 is_stmt 0 discriminator 1
	add	x0, x19, 112
.LVL104:
	b	.L95
.LVL105:
.L105:
.LBE219:
.LBE220:
	.loc 1 241 0 is_stmt 1
	ldr	x2, [x1]
	adrp	x1, .LANCHOR0
	mov	x3, x0
	add	x1, x1, :lo12:.LANCHOR0
	adrp	x0, .LC8
	add	x1, x1, 136
	add	x0, x0, :lo12:.LC8
	bl	printk
.LVL106:
	.loc 1 246 0
	bl	dump_stack
.LVL107:
	.loc 1 247 0
	mov	w0, -22
	b	.L96
	.cfi_endproc
.LFE2804:
	.size	blk_busy_idle_event_unregister, .-blk_busy_idle_event_unregister
	.align	2
	.global	blk_busy_idle_query
	.type	blk_busy_idle_query, %function
blk_busy_idle_query:
.LFB2805:
	.loc 1 260 0
	.cfi_startproc
.LVL108:
.LBB221:
.LBB222:
	.loc 1 110 0
	ldr	x1, [x0,256]
	cbz	x1, .L107
	.loc 1 111 0
	ldr	x1, [x0,13640]
	cbz	x1, .L108
	.loc 1 111 0 is_stmt 0 discriminator 1
	add	x1, x1, 128
.L109:
.LBE222:
.LBE221:
	.loc 1 263 0 is_stmt 1
	ldr	w0, [x1,240]
.LVL109:
	ret
.LVL110:
.L108:
.LBB225:
.LBB223:
	.loc 1 111 0 discriminator 2
	add	x1, x0, 584
.LBE223:
.LBE225:
	.loc 1 263 0
	ldr	w0, [x1,240]
.LVL111:
	ret
.LVL112:
.L107:
.LBB226:
.LBB224:
	.loc 1 113 0
	ldr	x1, [x0,12896]
	cbz	x1, .L108
	.loc 1 113 0 is_stmt 0 discriminator 1
	add	x1, x1, 112
	b	.L109
.LBE224:
.LBE226:
	.cfi_endproc
.LFE2805:
	.size	blk_busy_idle_query, .-blk_busy_idle_query
	.align	2
	.global	blk_bio_in_count_set
	.type	blk_bio_in_count_set, %function
blk_bio_in_count_set:
.LFB2809:
	.loc 1 365 0 is_stmt 1
	.cfi_startproc
.LVL113:
	stp	x29, x30, [sp, -48]!
	.cfi_def_cfa_offset 48
	.cfi_offset 29, -48
	.cfi_offset 30, -40
	add	x29, sp, 0
	.cfi_def_cfa_register 29
	stp	x19, x20, [sp,16]
	str	x21, [sp,32]
	.cfi_offset 19, -32
	.cfi_offset 20, -24
	.cfi_offset 21, -16
.LBB227:
.LBB228:
	.loc 1 110 0
	ldr	x2, [x0,256]
	cbz	x2, .L117
	.loc 1 111 0
	ldr	x19, [x0,13640]
	cbz	x19, .L118
	.loc 1 111 0 is_stmt 0 discriminator 1
	add	x19, x19, 128
.L119:
.LBE228:
.LBE227:
	.loc 1 370 0 is_stmt 1
	str	x0, [x1,144]
	.loc 1 371 0
	ldrb	w2, [x19,184]
	cbz	w2, .L116
	.loc 1 373 0
	ldrb	w2, [x1,136]
	tbnz	x2, 0, .L116
.LBB230:
.LBB231:
	.loc 1 335 0
	add	x21, x19, 192
.LBE231:
.LBE230:
	.loc 1 375 0
	orr	w2, w2, 1
	mov	x20, x0
	strb	w2, [x1,136]
.LBB236:
.LBB234:
	.loc 1 335 0
	mov	x0, x21
.LVL114:
	bl	mutex_lock
.LVL115:
.LBB232:
.LBB233:
	.loc 4 90 0
	add	x2, x19, 188
#APP
// 90 "/cloud/jenkins/workspace/950_chipset_0425_component/opensource/component_code/vendor/huawei/extra/build/build_script/kirin_kernel_release/kernel/arch/arm64/include/asm/atomic_ll_sc.h" 1
	// atomic_add_return
	prfm	pstl1strm, [x2]
1:	ldxr	w0, [x2]
	add	w0, w0, 1
	stlxr	w1, w0, [x2]
	cbnz	w1, 1b
	dmb ish
// 0 "" 2
.LVL116:
#NO_APP
.LBE233:
.LBE232:
	.loc 1 336 0
	cmp	w0, 1
	beq	.L137
.L122:
	.loc 1 349 0
	mov	x0, x21
.LVL117:
	bl	mutex_unlock
.LVL118:
.L116:
.LBE234:
.LBE236:
	.loc 1 386 0
	ldp	x19, x20, [sp,16]
	.cfi_remember_state
	.cfi_restore 20
	.cfi_restore 19
	ldr	x21, [sp,32]
	.cfi_restore 21
	ldp	x29, x30, [sp], 48
	.cfi_restore 30
	.cfi_restore 29
	.cfi_def_cfa 31, 0
	ret
.L118:
	.cfi_restore_state
.LBB237:
.LBB229:
	.loc 1 111 0 discriminator 2
	add	x19, x0, 584
	b	.L119
.L117:
	.loc 1 113 0
	ldr	x19, [x0,12896]
	cbz	x19, .L118
	.loc 1 113 0 is_stmt 0 discriminator 1
	add	x19, x19, 112
	b	.L119
.LVL119:
.L137:
.LBE229:
.LBE237:
.LBB238:
.LBB235:
	.loc 1 337 0 is_stmt 1
	add	x0, x19, 24
.LVL120:
	bl	cancel_delayed_work
.LVL121:
	.loc 1 338 0
	ldr	w0, [x19,240]
	cmp	w0, 1
	bne	.L122
	.loc 1 339 0
	str	wzr, [x19,240]
	.loc 1 340 0
	bl	ktime_get
.LVL122:
	str	x0, [x19,256]
	ldr	x1, [x19,248]
.LVL123:
	.loc 1 344 0
	cbz	x1, .L124
	.loc 1 345 0
	ldr	x2, [x19,272]
	sub	x0, x0, x1
	add	x0, x2, x0
	str	x0, [x19,272]
.L124:
	.loc 1 346 0
	add	x0, x19, 128
	mov	x1, 0
.LVL124:
	mov	x2, x20
	bl	blocking_notifier_call_chain
.LVL125:
	b	.L122
.LBE235:
.LBE238:
	.cfi_endproc
.LFE2809:
	.size	blk_bio_in_count_set, .-blk_bio_in_count_set
	.align	2
	.global	blk_request_bio_in_count_check
	.type	blk_request_bio_in_count_check, %function
blk_request_bio_in_count_check:
.LFB2810:
	.loc 1 389 0
	.cfi_startproc
.LVL126:
	stp	x29, x30, [sp, -32]!
	.cfi_def_cfa_offset 32
	.cfi_offset 29, -32
	.cfi_offset 30, -24
	add	x29, sp, 0
	.cfi_def_cfa_register 29
	stp	x19, x20, [sp,16]
	.cfi_offset 19, -16
	.cfi_offset 20, -8
	.loc 1 389 0
	mov	x20, x0
	.loc 1 390 0
	ldr	x19, [x1,280]
.LVL127:
	.loc 1 391 0
	cbz	x19, .L141
.L140:
	.loc 1 393 0
	mov	x1, x19
.LVL128:
	mov	x0, x20
	bl	blk_bio_in_count_set
.LVL129:
	.loc 1 394 0
	ldr	x19, [x19]
	.loc 1 395 0 discriminator 1
	cbnz	x19, .L140
	.loc 1 396 0
	mov	w0, 1
	.loc 1 399 0
	ldp	x19, x20, [sp,16]
	.cfi_remember_state
	.cfi_restore 20
	.cfi_restore 19
.LVL130:
	ldp	x29, x30, [sp], 32
	.cfi_restore 30
	.cfi_restore 29
	.cfi_def_cfa 31, 0
	ret
.LVL131:
.L141:
	.cfi_restore_state
	.loc 1 398 0
	mov	w0, 0
	.loc 1 399 0
	ldp	x19, x20, [sp,16]
	.cfi_restore 19
	.cfi_restore 20
.LVL132:
	ldp	x29, x30, [sp], 32
	.cfi_restore 29
	.cfi_restore 30
	.cfi_def_cfa 31, 0
	ret
	.cfi_endproc
.LFE2810:
	.size	blk_request_bio_in_count_check, .-blk_request_bio_in_count_check
	.align	2
	.global	blk_execute_request_in_count_check
	.type	blk_execute_request_in_count_check, %function
blk_execute_request_in_count_check:
.LFB2812:
	.loc 1 424 0
	.cfi_startproc
.LVL133:
	stp	x29, x30, [sp, -64]!
	.cfi_def_cfa_offset 64
	.cfi_offset 29, -64
	.cfi_offset 30, -56
	add	x29, sp, 0
	.cfi_def_cfa_register 29
	stp	x21, x22, [sp,32]
	stp	x19, x20, [sp,16]
	str	x23, [sp,48]
	.cfi_offset 21, -32
	.cfi_offset 22, -24
	.cfi_offset 19, -48
	.cfi_offset 20, -40
	.cfi_offset 23, -16
	.loc 1 424 0
	mov	x21, x1
	mov	x20, x0
	mov	x22, x2
.LBB239:
.LBB240:
	.loc 1 390 0
	ldr	x19, [x1,280]
.LVL134:
	.loc 1 391 0
	cbz	x19, .L144
.L145:
	.loc 1 393 0
	mov	x1, x19
	mov	x0, x20
	bl	blk_bio_in_count_set
.LVL135:
	.loc 1 394 0
	ldr	x19, [x19]
	.loc 1 395 0 discriminator 1
	cbnz	x19, .L145
.LBE240:
.LBE239:
	.loc 1 441 0
	str	x22, [x21,528]
	.loc 1 442 0
	ldp	x19, x20, [sp,16]
	.cfi_remember_state
	.cfi_restore 20
	.cfi_restore 19
.LVL136:
	ldp	x21, x22, [sp,32]
	.cfi_restore 22
	.cfi_restore 21
.LVL137:
	ldr	x23, [sp,48]
	.cfi_restore 23
	ldp	x29, x30, [sp], 64
	.cfi_restore 30
	.cfi_restore 29
	.cfi_def_cfa 31, 0
	ret
.LVL138:
.L144:
	.cfi_restore_state
.LBB241:
	.loc 1 426 0
	ldr	x19, [x1,64]
.LVL139:
.LBB242:
.LBB243:
	.loc 1 110 0
	ldr	x0, [x19,256]
	cbz	x0, .L169
	.loc 1 111 0
	ldr	x0, [x19,13640]
	.loc 1 111 0 is_stmt 0 discriminator 1
	add	x19, x19, 584
	add	x1, x0, 128
.LVL140:
	cmp	x0, xzr
	csel	x19, x19, x1, eq
.L148:
.LBE243:
.LBE242:
	.loc 1 427 0 is_stmt 1
	ldrb	w0, [x19,184]
	cbz	w0, .L150
.LBB245:
.LBB246:
	.loc 1 335 0
	add	x23, x19, 192
	mov	x0, x23
	bl	mutex_lock
.LVL141:
.LBB247:
.LBB248:
	.loc 4 90 0
	add	x2, x19, 188
#APP
// 90 "/cloud/jenkins/workspace/950_chipset_0425_component/opensource/component_code/vendor/huawei/extra/build/build_script/kirin_kernel_release/kernel/arch/arm64/include/asm/atomic_ll_sc.h" 1
	// atomic_add_return
	prfm	pstl1strm, [x2]
1:	ldxr	w0, [x2]
	add	w0, w0, 1
	stlxr	w1, w0, [x2]
	cbnz	w1, 1b
	dmb ish
// 0 "" 2
.LVL142:
#NO_APP
.LBE248:
.LBE247:
	.loc 1 336 0
	cmp	w0, 1
	beq	.L170
.L152:
	.loc 1 349 0
	mov	x0, x23
.LVL143:
	bl	mutex_unlock
.LVL144:
.L150:
.LBE246:
.LBE245:
	.loc 1 437 0
	adrp	x0, blk_end_rq
	.loc 1 438 0
	str	x22, [x21,536]
	.loc 1 437 0
	add	x0, x0, :lo12:blk_end_rq
	str	x0, [x21,528]
.LBE241:
	.loc 1 442 0
	ldp	x19, x20, [sp,16]
	.cfi_remember_state
	.cfi_restore 19
	.cfi_restore 20
.LVL145:
	ldp	x21, x22, [sp,32]
	.cfi_restore 21
	.cfi_restore 22
.LVL146:
	ldr	x23, [sp,48]
	.cfi_restore 23
	ldp	x29, x30, [sp], 64
	.cfi_restore 29
	.cfi_restore 30
	.cfi_def_cfa 31, 0
	ret
.LVL147:
.L169:
	.cfi_restore_state
.LBB252:
.LBB250:
.LBB244:
	.loc 1 113 0
	ldr	x0, [x19,12896]
	.loc 1 113 0 is_stmt 0 discriminator 1
	add	x19, x19, 584
	add	x1, x0, 112
.LVL148:
	cmp	x0, xzr
	csel	x19, x19, x1, eq
	b	.L148
.LVL149:
.L170:
.LBE244:
.LBE250:
.LBB251:
.LBB249:
	.loc 1 337 0 is_stmt 1
	add	x0, x19, 24
.LVL150:
	bl	cancel_delayed_work
.LVL151:
	.loc 1 338 0
	ldr	w0, [x19,240]
	cmp	w0, 1
	bne	.L152
	.loc 1 339 0
	str	wzr, [x19,240]
	.loc 1 340 0
	bl	ktime_get
.LVL152:
	str	x0, [x19,256]
	ldr	x1, [x19,248]
.LVL153:
	.loc 1 344 0
	cbz	x1, .L154
	.loc 1 345 0
	ldr	x2, [x19,272]
	sub	x0, x0, x1
	add	x0, x2, x0
	str	x0, [x19,272]
.L154:
	.loc 1 346 0
	add	x0, x19, 128
	mov	x1, 0
.LVL154:
	mov	x2, x20
	bl	blocking_notifier_call_chain
.LVL155:
	b	.L152
.LBE249:
.LBE251:
.LBE252:
	.cfi_endproc
.LFE2812:
	.size	blk_execute_request_in_count_check, .-blk_execute_request_in_count_check
	.align	2
	.global	blk_bio_endio_in_count_check
	.type	blk_bio_endio_in_count_check, %function
blk_bio_endio_in_count_check:
.LFB2813:
	.loc 1 445 0
	.cfi_startproc
.LVL156:
	stp	x29, x30, [sp, -48]!
	.cfi_def_cfa_offset 48
	.cfi_offset 29, -48
	.cfi_offset 30, -40
	add	x29, sp, 0
	.cfi_def_cfa_register 29
	str	x19, [sp,16]
	.cfi_offset 19, -32
	.loc 1 446 0
	ldr	x1, [x0,8]
	cbz	x1, .L188
.LBB253:
.LBB254:
	.file 7 "/cloud/jenkins/workspace/950_chipset_0425_component/opensource/component_code/vendor/huawei/extra/build/build_script/kirin_kernel_release/kernel/include/linux/blkdev.h"
	.loc 7 1293 0
	ldr	x1, [x1,160]
	ldr	x19, [x1,928]
.LVL157:
.L173:
.LBE254:
.LBE253:
	.loc 1 449 0
	cbz	x19, .L171
.LBB255:
.LBB256:
	.loc 1 110 0
	ldr	x1, [x19,256]
	cbz	x1, .L176
	.loc 1 111 0
	ldr	x1, [x19,13640]
	.loc 1 111 0 is_stmt 0 discriminator 1
	add	x19, x19, 584
.LVL158:
	add	x2, x1, 128
	cmp	x1, xzr
	csel	x19, x19, x2, eq
.L178:
.LBE256:
.LBE255:
	.loc 1 454 0 is_stmt 1
	ldrb	w1, [x19,184]
	cbz	w1, .L171
	.loc 1 456 0
	ldrb	w1, [x0,136]
	tbz	x1, 0, .L171
	.loc 1 485 0
	strb	wzr, [x0,136]
.LBB258:
.LBB259:
.LBB260:
.LBB261:
.LBB262:
	.loc 3 218 0 discriminator 4
	ldr	w0, [x19,188]
.LVL159:
.LBE262:
.LBE261:
.LBE260:
	.loc 1 285 0 discriminator 5
	cbz	w0, .L189
.LBB263:
.LBB264:
	.loc 4 91 0
	add	x2, x19, 188
#APP
// 91 "/cloud/jenkins/workspace/950_chipset_0425_component/opensource/component_code/vendor/huawei/extra/build/build_script/kirin_kernel_release/kernel/arch/arm64/include/asm/atomic_ll_sc.h" 1
	// atomic_sub_return
	prfm	pstl1strm, [x2]
1:	ldxr	w0, [x2]
	sub	w0, w0, 1
	stlxr	w1, w0, [x2]
	cbnz	w1, 1b
	dmb ish
// 0 "" 2
.LVL160:
#NO_APP
.LBE264:
.LBE263:
	.loc 1 293 0
	cbz	w0, .L190
.LVL161:
.L171:
.LBE259:
.LBE258:
	.loc 1 487 0
	ldr	x19, [sp,16]
	.cfi_remember_state
	.cfi_restore 19
.LVL162:
	ldp	x29, x30, [sp], 48
	.cfi_restore 30
	.cfi_restore 29
	.cfi_def_cfa 31, 0
	ret
.LVL163:
.L188:
	.cfi_restore_state
	.loc 1 446 0 discriminator 1
	ldr	x19, [x0,144]
.LVL164:
	b	.L173
.L176:
.LBB272:
.LBB257:
	.loc 1 113 0
	ldr	x1, [x19,12896]
	.loc 1 113 0 is_stmt 0 discriminator 1
	add	x19, x19, 584
.LVL165:
	add	x2, x1, 112
	cmp	x1, xzr
	csel	x19, x19, x2, eq
	b	.L178
.LVL166:
.L189:
.LBE257:
.LBE272:
.LBB273:
.LBB271:
	.loc 1 286 0 is_stmt 1
	adrp	x1, .LANCHOR0
	adrp	x0, .LC4
	add	x1, x1, :lo12:.LANCHOR0
	add	x0, x0, :lo12:.LC4
	add	x1, x1, 88
	bl	printk
.LVL167:
	b	.L171
.LVL168:
.L190:
	.loc 1 294 0
	adrp	x1, .LANCHOR1
.LVL169:
.LBB265:
.LBB266:
	.loc 5 361 0
	ldr	w0, [x19,120]
.LVL170:
.LBE266:
.LBE265:
	.loc 1 294 0
	ldr	x1, [x1,#:lo12:.LANCHOR1]
	str	x1, [x29,40]
.LBB268:
.LBB267:
	.loc 5 361 0
	bl	__msecs_to_jiffies
.LVL171:
	mov	x3, x0
.LBE267:
.LBE268:
.LBB269:
.LBB270:
	.loc 6 487 0
	ldr	x1, [x29,40]
	add	x2, x19, 24
	mov	w0, 8
	bl	queue_delayed_work_on
.LVL172:
	b	.L171
.LBE270:
.LBE269:
.LBE271:
.LBE273:
	.cfi_endproc
.LFE2813:
	.size	blk_bio_endio_in_count_check, .-blk_bio_endio_in_count_check
	.align	2
	.global	io_type_parse
	.type	io_type_parse, %function
io_type_parse:
.LFB2818:
	.loc 1 586 0
	.cfi_startproc
.LVL173:
	.loc 1 587 0
	tbz	x0, 0, .L192
.LBB286:
.LBB287:
	.loc 1 588 0
	tbz	x0, 4, .L193
	.loc 1 603 0
	tbnz	x0, 7, .L223
	.loc 1 606 0
	tbz	x0, 5, .L196
.LBB288:
.LBB289:
	.loc 1 526 0
	and	x0, x0, 12288
.LVL174:
	cmp	x0, 8192
	beq	.L198
	cmp	x0, 12288
	beq	.L199
	cmp	x0, 4096
	beq	.L224
	.loc 1 535 0 discriminator 2
	adrp	x0, .LANCHOR2+32
	ldr	x0, [x0,#:lo12:.LANCHOR2+32]
.LBE289:
.LBE288:
.LBE287:
.LBE286:
	.loc 1 618 0
	ret
.LVL175:
.L192:
.LBB339:
.LBB340:
	.loc 1 571 0
	tbz	x0, 4, .L214
	.loc 1 572 0
	tbz	x0, 5, .L215
.LVL176:
	.loc 1 573 0
	adrp	x0, .LANCHOR2+144
	ldr	x0, [x0,#:lo12:.LANCHOR2+144]
.LBE340:
.LBE339:
	.loc 1 618 0
	ret
.LVL177:
.L214:
.LBB344:
.LBB341:
	.loc 1 578 0
	tbz	x0, 5, .L216
.LVL178:
	.loc 1 579 0
	adrp	x0, .LANCHOR2+160
	ldr	x0, [x0,#:lo12:.LANCHOR2+160]
.LBE341:
.LBE344:
	.loc 1 618 0
	ret
.LVL179:
.L193:
.LBB345:
.LBB322:
	.loc 1 610 0
	tbnz	x0, 7, .L225
.LBB293:
.LBB294:
	.loc 1 556 0
	and	x1, x0, 12288
.LBE294:
.LBE293:
	.loc 1 613 0
	ubfx	x0, x0, 5, 1
.LVL180:
.LBB303:
.LBB295:
	.loc 1 556 0
	cmp	x1, 8192
	beq	.L207
	cmp	x1, 12288
	beq	.L208
	cmp	x1, 4096
	beq	.L226
	.loc 1 565 0
	cbz	w0, .L213
	.loc 1 565 0 is_stmt 0 discriminator 1
	adrp	x0, .LANCHOR2+128
	ldr	x0, [x0,#:lo12:.LANCHOR2+128]
.LBE295:
.LBE303:
.LBE322:
.LBE345:
	.loc 1 618 0 is_stmt 1
	ret
.L215:
.LBB346:
.LBB342:
	.loc 1 575 0
	adrp	x0, .LANCHOR2+152
	ldr	x0, [x0,#:lo12:.LANCHOR2+152]
.LBE342:
.LBE346:
	.loc 1 618 0
	ret
.L216:
.LBB347:
.LBB343:
	.loc 1 581 0
	adrp	x0, .LANCHOR2+168
	ldr	x0, [x0,#:lo12:.LANCHOR2+168]
.LBE343:
.LBE347:
	.loc 1 618 0
	ret
.LVL181:
.L223:
.LBB348:
.LBB323:
	.loc 1 604 0
	adrp	x0, .LANCHOR2
.LVL182:
	ldr	x0, [x0,#:lo12:.LANCHOR2]
.LBE323:
.LBE348:
	.loc 1 618 0
	ret
.LVL183:
.L225:
.LBB349:
.LBB324:
	.loc 1 611 0
	adrp	x0, .LANCHOR2+72
.LVL184:
	ldr	x0, [x0,#:lo12:.LANCHOR2+72]
.LBE324:
.LBE349:
	.loc 1 618 0
	ret
.LVL185:
.L196:
.LBB350:
.LBB325:
.LBB304:
.LBB305:
	.loc 1 541 0
	and	x0, x0, 12288
.LVL186:
	cmp	x0, 8192
	beq	.L202
	cmp	x0, 12288
	beq	.L203
	cmp	x0, 4096
	beq	.L227
	.loc 1 550 0 discriminator 2
	adrp	x0, .LANCHOR2+64
	ldr	x0, [x0,#:lo12:.LANCHOR2+64]
.LBE305:
.LBE304:
.LBE325:
.LBE350:
	.loc 1 618 0
	ret
.L203:
.LBB351:
.LBB326:
.LBB309:
.LBB306:
	.loc 1 544 0 discriminator 2
	adrp	x0, .LANCHOR2+40
	ldr	x0, [x0,#:lo12:.LANCHOR2+40]
.LBE306:
.LBE309:
.LBE326:
.LBE351:
	.loc 1 618 0
	ret
.L213:
.LBB352:
.LBB327:
.LBB310:
.LBB296:
	.loc 1 565 0 discriminator 2
	adrp	x0, .LANCHOR2+136
	ldr	x0, [x0,#:lo12:.LANCHOR2+136]
.LBE296:
.LBE310:
.LBE327:
.LBE352:
	.loc 1 618 0
	ret
.L199:
.LBB353:
.LBB328:
.LBB311:
.LBB290:
	.loc 1 529 0 discriminator 2
	adrp	x0, .LANCHOR2+8
	ldr	x0, [x0,#:lo12:.LANCHOR2+8]
.LBE290:
.LBE311:
.LBE328:
.LBE353:
	.loc 1 618 0
	ret
.L207:
.LBB354:
.LBB329:
.LBB312:
.LBB297:
	.loc 1 561 0
	cbz	w0, .L211
	.loc 1 561 0 is_stmt 0 discriminator 1
	adrp	x0, .LANCHOR2+96
	ldr	x0, [x0,#:lo12:.LANCHOR2+96]
.LBE297:
.LBE312:
.LBE329:
.LBE354:
	.loc 1 618 0 is_stmt 1
	ret
.L226:
.LBB355:
.LBB330:
.LBB313:
.LBB298:
	.loc 1 563 0
	cbz	w0, .L212
	.loc 1 563 0 is_stmt 0 discriminator 1
	adrp	x0, .LANCHOR2+112
	ldr	x0, [x0,#:lo12:.LANCHOR2+112]
.LBE298:
.LBE313:
.LBE330:
.LBE355:
	.loc 1 618 0 is_stmt 1
	ret
.L208:
.LBB356:
.LBB331:
.LBB314:
.LBB299:
	.loc 1 559 0
	cbz	w0, .L210
	.loc 1 559 0 is_stmt 0 discriminator 1
	adrp	x0, .LANCHOR2+80
	ldr	x0, [x0,#:lo12:.LANCHOR2+80]
.LBE299:
.LBE314:
.LBE331:
.LBE356:
	.loc 1 618 0 is_stmt 1
	ret
.L198:
.LBB357:
.LBB332:
.LBB315:
.LBB291:
	.loc 1 531 0 discriminator 2
	adrp	x0, .LANCHOR2+16
	ldr	x0, [x0,#:lo12:.LANCHOR2+16]
.LBE291:
.LBE315:
.LBE332:
.LBE357:
	.loc 1 618 0
	ret
.L227:
.LBB358:
.LBB333:
.LBB316:
.LBB307:
	.loc 1 548 0 discriminator 2
	adrp	x0, .LANCHOR2+56
	ldr	x0, [x0,#:lo12:.LANCHOR2+56]
.LBE307:
.LBE316:
.LBE333:
.LBE358:
	.loc 1 618 0
	ret
.L210:
.LBB359:
.LBB334:
.LBB317:
.LBB300:
	.loc 1 559 0 discriminator 2
	adrp	x0, .LANCHOR2+88
	ldr	x0, [x0,#:lo12:.LANCHOR2+88]
.LBE300:
.LBE317:
.LBE334:
.LBE359:
	.loc 1 618 0
	ret
.L202:
.LBB360:
.LBB335:
.LBB318:
.LBB308:
	.loc 1 546 0 discriminator 2
	adrp	x0, .LANCHOR2+48
	ldr	x0, [x0,#:lo12:.LANCHOR2+48]
.LBE308:
.LBE318:
.LBE335:
.LBE360:
	.loc 1 618 0
	ret
.L224:
.LBB361:
.LBB336:
.LBB319:
.LBB292:
	.loc 1 533 0 discriminator 2
	adrp	x0, .LANCHOR2+24
	ldr	x0, [x0,#:lo12:.LANCHOR2+24]
.LBE292:
.LBE319:
.LBE336:
.LBE361:
	.loc 1 618 0
	ret
.L211:
.LBB362:
.LBB337:
.LBB320:
.LBB301:
	.loc 1 561 0 discriminator 2
	adrp	x0, .LANCHOR2+104
	ldr	x0, [x0,#:lo12:.LANCHOR2+104]
.LBE301:
.LBE320:
.LBE337:
.LBE362:
	.loc 1 618 0
	ret
.L212:
.LBB363:
.LBB338:
.LBB321:
.LBB302:
	.loc 1 563 0 discriminator 2
	adrp	x0, .LANCHOR2+120
	ldr	x0, [x0,#:lo12:.LANCHOR2+120]
.LBE302:
.LBE321:
.LBE338:
.LBE363:
	.loc 1 618 0
	ret
	.cfi_endproc
.LFE2818:
	.size	io_type_parse, .-io_type_parse
	.align	2
	.global	blk_dump_bio
	.type	blk_dump_bio, %function
blk_dump_bio:
.LFB2797:
	.loc 1 26 0
	.cfi_startproc
.LVL187:
	sub	sp, sp, #528
	.cfi_def_cfa_offset 528
	stp	x29, x30, [sp, -48]!
	.cfi_def_cfa_offset 576
	.cfi_offset 29, -576
	.cfi_offset 30, -568
	add	x29, sp, 0
	.cfi_def_cfa_register 29
	stp	x21, x22, [sp,32]
	.cfi_offset 21, -544
	.cfi_offset 22, -536
	adrp	x22, __stack_chk_guard
	stp	x19, x20, [sp,16]
	.cfi_offset 19, -560
	.cfi_offset 20, -552
	.loc 1 26 0
	mov	x19, x0
	.loc 1 31 0
	ldr	x4, [x0,160]
	.loc 1 26 0
	ldr	x0, [x22,#:lo12:__stack_chk_guard]
.LVL188:
	str	x0, [x29,568]
	.loc 1 31 0
	cbnz	x4, .L246
	ldr	x4, [x19,168]
	.loc 1 29 0
	mov	w20, 0
.LVL189:
	add	x21, x29, 64
	.loc 1 31 0
	cbnz	x4, .L247
.L230:
	ldr	x4, [x19,176]
	cbnz	x4, .L248
.L231:
	ldr	x4, [x19,184]
	cbnz	x4, .L249
.L232:
	.loc 1 35 0
	ldr	x6, [x19,264]
	str	x6, [x29,56]
	.loc 1 36 0
	ldr	x0, [x19,24]
	.loc 1 35 0
	cbz	x6, .L233
.L251:
	.loc 1 36 0
	bl	io_type_parse
.LVL190:
	mov	x2, x0
	.loc 1 36 0 is_stmt 0 discriminator 1
	ldr	w3, [x19,48]
	adrp	x0, .LC11
	ldr	w4, [x19,272]
	add	x0, x0, :lo12:.LC11
	ldr	x6, [x29,56]
	mov	x1, x19
	add	x5, x19, 280
.LVL191:
	bl	printk
.LVL192:
.L234:
	.loc 1 41 0 is_stmt 1
	adrp	x0, .LC13
	mov	x1, x21
	add	x0, x0, :lo12:.LC13
	bl	printk
.LVL193:
	.loc 1 42 0
	ldr	x1, [x29,568]
	ldr	x0, [x22,#:lo12:__stack_chk_guard]
	cmp	x1, x0
	bne	.L250
	ldp	x19, x20, [sp,16]
	.cfi_remember_state
	.cfi_restore 20
	.cfi_restore 19
.LVL194:
	ldp	x21, x22, [sp,32]
	.cfi_restore 22
	.cfi_restore 21
	ldp	x29, x30, [sp], 48
	.cfi_restore 30
	.cfi_restore 29
	.cfi_def_cfa 31, 528
	add	sp, sp, 528
	.cfi_def_cfa_offset 480
	ret
.LVL195:
.L246:
	.cfi_restore_state
	.loc 1 33 0
	adrp	x3, bio_stage_cfg
	add	x21, x29, 64
	adrp	x2, .LC10
	mov	x0, x21
	mov	x1, 500
	add	x2, x2, :lo12:.LC10
	ldr	x3, [x3,#:lo12:bio_stage_cfg]
	bl	snprintf
.LVL196:
	mov	w20, w0
.LVL197:
	.loc 1 31 0
	ldr	x4, [x19,168]
	cbz	x4, .L230
.L247:
	.loc 1 33 0
	adrp	x0, bio_stage_cfg+16
	mov	w1, 500
	sub	w1, w1, w20
	adrp	x2, .LC10
	add	x2, x2, :lo12:.LC10
	ldr	x3, [x0,#:lo12:bio_stage_cfg+16]
	sxtw	x1, w1
	add	x0, x21, x20, sxtw
	bl	snprintf
.LVL198:
	add	w20, w20, w0
	.loc 1 31 0
	ldr	x4, [x19,176]
	cbz	x4, .L231
.L248:
	.loc 1 33 0
	adrp	x0, bio_stage_cfg+32
	mov	w1, 500
	sub	w1, w1, w20
	adrp	x2, .LC10
	add	x2, x2, :lo12:.LC10
	ldr	x3, [x0,#:lo12:bio_stage_cfg+32]
	sxtw	x1, w1
	add	x0, x21, x20, sxtw
	bl	snprintf
.LVL199:
	add	w20, w20, w0
	.loc 1 31 0
	ldr	x4, [x19,184]
	cbz	x4, .L232
.L249:
	.loc 1 33 0
	adrp	x0, bio_stage_cfg+48
	mov	w1, 500
	sub	w1, w1, w20
	adrp	x2, .LC10
	add	x2, x2, :lo12:.LC10
	ldr	x3, [x0,#:lo12:bio_stage_cfg+48]
	sxtw	x1, w1
	add	x0, x21, x20, sxtw
	bl	snprintf
.LVL200:
	.loc 1 35 0
	ldr	x6, [x19,264]
	str	x6, [x29,56]
	.loc 1 36 0
	ldr	x0, [x19,24]
	.loc 1 35 0
	cbnz	x6, .L251
.L233:
	.loc 1 39 0
	bl	io_type_parse
.LVL201:
	mov	x2, x0
	.loc 1 39 0 is_stmt 0 discriminator 1
	ldr	w3, [x19,48]
	adrp	x0, .LC12
	mov	x1, x19
	add	x0, x0, :lo12:.LC12
	bl	printk
.LVL202:
	b	.L234
.L250:
	.loc 1 42 0 is_stmt 1
	bl	__stack_chk_fail
.LVL203:
	.cfi_endproc
.LFE2797:
	.size	blk_dump_bio, .-blk_dump_bio
	.align	2
	.global	blk_dump_request
	.type	blk_dump_request, %function
blk_dump_request:
.LFB2798:
	.loc 1 45 0
	.cfi_startproc
.LVL204:
	sub	sp, sp, #528
	.cfi_def_cfa_offset 528
	stp	x29, x30, [sp, -48]!
	.cfi_def_cfa_offset 576
	.cfi_offset 29, -576
	.cfi_offset 30, -568
	add	x29, sp, 0
	.cfi_def_cfa_register 29
	stp	x21, x22, [sp,32]
	.cfi_offset 21, -544
	.cfi_offset 22, -536
	adrp	x22, __stack_chk_guard
	stp	x19, x20, [sp,16]
	.cfi_offset 19, -560
	.cfi_offset 20, -552
	.loc 1 45 0
	mov	x19, x0
	.loc 1 51 0
	ldr	x4, [x0,152]
	.loc 1 45 0
	ldr	x0, [x22,#:lo12:__stack_chk_guard]
.LVL205:
	str	x0, [x29,568]
	.loc 1 51 0
	cbnz	x4, .L292
	ldr	x4, [x19,160]
	.loc 1 49 0
	mov	w20, 0
.LVL206:
	add	x21, x29, 64
	.loc 1 51 0
	cbnz	x4, .L293
.L254:
	ldr	x4, [x19,168]
	cbnz	x4, .L294
.L255:
	ldr	x4, [x19,176]
	cbnz	x4, .L295
.L256:
	ldr	x4, [x19,184]
	cbnz	x4, .L296
.L257:
	ldr	x4, [x19,192]
	cbnz	x4, .L297
.L258:
	ldr	x4, [x19,200]
	cbnz	x4, .L298
.L259:
	ldr	x4, [x19,208]
	cbnz	x4, .L299
.L260:
	ldr	x4, [x19,216]
	cbnz	x4, .L300
.L261:
	ldr	w0, [x19,96]
	sub	w0, w0, #1
	cmp	w0, 2
	bhi	.L267
	adrp	x1, .LANCHOR0
	.loc 1 77 0
	ldr	x7, [x19,232]
	add	x1, x1, :lo12:.LANCHOR0
	str	x7, [x29,56]
	add	x1, x1, 168
	ldr	x4, [x1,w0,uxtw 3]
.LVL207:
	cbz	x7, .L263
.L302:
	.loc 1 78 0
	ldr	x0, [x19,88]
	str	x4, [x29,48]
	bl	io_type_parse
.LVL208:
	mov	x2, x0
	.loc 1 78 0 is_stmt 0 discriminator 1
	ldr	w3, [x19,264]
	adrp	x0, .LC15
	ldr	w5, [x19,240]
	add	x0, x0, :lo12:.LC15
	ldr	x4, [x29,48]
.LVL209:
	mov	x1, x19
	ldr	x7, [x29,56]
	add	x6, x19, 248
.LVL210:
	bl	printk
.LVL211:
.L264:
	.loc 1 84 0 is_stmt 1
	adrp	x0, .LC13
	mov	x1, x21
	add	x0, x0, :lo12:.LC13
	bl	printk
.LVL212:
	.loc 1 85 0
	ldr	x1, [x29,568]
	ldr	x0, [x22,#:lo12:__stack_chk_guard]
	cmp	x1, x0
	bne	.L301
	ldp	x19, x20, [sp,16]
	.cfi_remember_state
	.cfi_restore 20
	.cfi_restore 19
.LVL213:
	ldp	x21, x22, [sp,32]
	.cfi_restore 22
	.cfi_restore 21
	ldp	x29, x30, [sp], 48
	.cfi_restore 30
	.cfi_restore 29
	.cfi_def_cfa 31, 528
	add	sp, sp, 528
	.cfi_def_cfa_offset 480
	ret
.LVL214:
.L267:
	.cfi_restore_state
	.loc 1 77 0
	ldr	x7, [x19,232]
	.loc 1 55 0
	adrp	x4, .LC14
	.loc 1 77 0
	str	x7, [x29,56]
	.loc 1 55 0
	add	x4, x4, :lo12:.LC14
.LVL215:
	.loc 1 77 0
	cbnz	x7, .L302
.L263:
	.loc 1 81 0
	ldr	x0, [x19,88]
	str	x4, [x29,56]
	bl	io_type_parse
.LVL216:
	mov	x2, x0
	.loc 1 81 0 is_stmt 0 discriminator 1
	ldr	w3, [x19,264]
	adrp	x0, .LC16
	ldr	x4, [x29,56]
.LVL217:
	mov	x1, x19
	add	x0, x0, :lo12:.LC16
	bl	printk
.LVL218:
	b	.L264
.LVL219:
.L292:
	.loc 1 53 0 is_stmt 1
	adrp	x3, req_stage_cfg
	add	x21, x29, 64
	adrp	x2, .LC10
	mov	x0, x21
	mov	x1, 500
	add	x2, x2, :lo12:.LC10
	ldr	x3, [x3,#:lo12:req_stage_cfg]
	bl	snprintf
.LVL220:
	mov	w20, w0
.LVL221:
	.loc 1 51 0
	ldr	x4, [x19,160]
	cbz	x4, .L254
.L293:
	.loc 1 53 0
	adrp	x0, req_stage_cfg+16
	mov	w1, 500
	sub	w1, w1, w20
	adrp	x2, .LC10
	add	x2, x2, :lo12:.LC10
	ldr	x3, [x0,#:lo12:req_stage_cfg+16]
	sxtw	x1, w1
	add	x0, x21, x20, sxtw
	bl	snprintf
.LVL222:
	add	w20, w20, w0
	.loc 1 51 0
	ldr	x4, [x19,168]
	cbz	x4, .L255
.L294:
	.loc 1 53 0
	adrp	x0, req_stage_cfg+32
	mov	w1, 500
	sub	w1, w1, w20
	adrp	x2, .LC10
	add	x2, x2, :lo12:.LC10
	ldr	x3, [x0,#:lo12:req_stage_cfg+32]
	sxtw	x1, w1
	add	x0, x21, x20, sxtw
	bl	snprintf
.LVL223:
	add	w20, w20, w0
	.loc 1 51 0
	ldr	x4, [x19,176]
	cbz	x4, .L256
.L295:
	.loc 1 53 0
	adrp	x0, req_stage_cfg+48
	mov	w1, 500
	sub	w1, w1, w20
	adrp	x2, .LC10
	add	x2, x2, :lo12:.LC10
	ldr	x3, [x0,#:lo12:req_stage_cfg+48]
	sxtw	x1, w1
	add	x0, x21, x20, sxtw
	bl	snprintf
.LVL224:
	add	w20, w20, w0
	.loc 1 51 0
	ldr	x4, [x19,184]
	cbz	x4, .L257
.L296:
	.loc 1 53 0
	adrp	x0, req_stage_cfg+64
	mov	w1, 500
	sub	w1, w1, w20
	adrp	x2, .LC10
	add	x2, x2, :lo12:.LC10
	ldr	x3, [x0,#:lo12:req_stage_cfg+64]
	sxtw	x1, w1
	add	x0, x21, x20, sxtw
	bl	snprintf
.LVL225:
	add	w20, w20, w0
	.loc 1 51 0
	ldr	x4, [x19,192]
	cbz	x4, .L258
.L297:
	.loc 1 53 0
	adrp	x0, req_stage_cfg+80
	mov	w1, 500
	sub	w1, w1, w20
	adrp	x2, .LC10
	add	x2, x2, :lo12:.LC10
	ldr	x3, [x0,#:lo12:req_stage_cfg+80]
	sxtw	x1, w1
	add	x0, x21, x20, sxtw
	bl	snprintf
.LVL226:
	add	w20, w20, w0
	.loc 1 51 0
	ldr	x4, [x19,200]
	cbz	x4, .L259
.L298:
	.loc 1 53 0
	adrp	x0, req_stage_cfg+96
	mov	w1, 500
	sub	w1, w1, w20
	adrp	x2, .LC10
	add	x2, x2, :lo12:.LC10
	ldr	x3, [x0,#:lo12:req_stage_cfg+96]
	sxtw	x1, w1
	add	x0, x21, x20, sxtw
	bl	snprintf
.LVL227:
	add	w20, w20, w0
	.loc 1 51 0
	ldr	x4, [x19,208]
	cbz	x4, .L260
.L299:
	.loc 1 53 0
	adrp	x0, req_stage_cfg+112
	mov	w1, 500
	sub	w1, w1, w20
	adrp	x2, .LC10
	add	x2, x2, :lo12:.LC10
	ldr	x3, [x0,#:lo12:req_stage_cfg+112]
	sxtw	x1, w1
	add	x0, x21, x20, sxtw
	bl	snprintf
.LVL228:
	add	w20, w20, w0
	.loc 1 51 0
	ldr	x4, [x19,216]
	cbz	x4, .L261
.L300:
	.loc 1 53 0
	adrp	x0, req_stage_cfg+128
	mov	w1, 500
	sub	w1, w1, w20
	adrp	x2, .LC10
	add	x2, x2, :lo12:.LC10
	ldr	x3, [x0,#:lo12:req_stage_cfg+128]
	sxtw	x1, w1
	add	x0, x21, x20, sxtw
	bl	snprintf
.LVL229:
	b	.L261
.L301:
	.loc 1 85 0
	bl	__stack_chk_fail
.LVL230:
	.cfi_endproc
.LFE2798:
	.size	blk_dump_request, .-blk_dump_request
	.align	2
	.global	hisi_generic_make_request
	.type	hisi_generic_make_request, %function
hisi_generic_make_request:
.LFB2821:
	.loc 1 663 0
	.cfi_startproc
.LVL231:
	stp	x29, x30, [sp, -32]!
	.cfi_def_cfa_offset 32
	.cfi_offset 29, -32
	.cfi_offset 30, -24
	.loc 1 680 0
	mov	x1, x0
	.loc 1 663 0
	add	x29, sp, 0
	.cfi_def_cfa_register 29
	stp	x19, x20, [sp,16]
	.cfi_offset 19, -16
	.cfi_offset 20, -8
	.loc 1 663 0
	mov	x19, x0
	ldr	x0, [x0,8]
.LVL232:
.LBB364:
.LBB365:
	.loc 7 1293 0
	ldr	x0, [x0,160]
	ldr	x20, [x0,928]
.LBE365:
.LBE364:
	.loc 1 680 0
	mov	x0, x20
	bl	blk_bio_in_count_set
.LVL233:
	.loc 1 682 0
	mov	x0, x19
	mov	w1, 0
	bl	bio_latency_check
.LVL234:
	.loc 1 685 0
	mov	x1, x19
	mov	x0, x20
	bl	flush_sync_dispatch
.LVL235:
	uxtb	w0, w0
	.loc 1 689 0
	eor	w0, w0, 1
	ldp	x19, x20, [sp,16]
	.cfi_restore 20
	.cfi_restore 19
.LVL236:
	ldp	x29, x30, [sp], 32
	.cfi_restore 30
	.cfi_restore 29
	.cfi_def_cfa 31, 0
	ret
	.cfi_endproc
.LFE2821:
	.size	hisi_generic_make_request, .-hisi_generic_make_request
	.align	2
	.global	hisi_init_request_from_bio
	.type	hisi_init_request_from_bio, %function
hisi_init_request_from_bio:
.LFB2822:
	.loc 1 692 0
	.cfi_startproc
.LVL237:
	stp	x29, x30, [sp, -32]!
	.cfi_def_cfa_offset 32
	.cfi_offset 29, -32
	.cfi_offset 30, -24
	add	x29, sp, 0
	.cfi_def_cfa_register 29
	stp	x19, x20, [sp,16]
	.cfi_offset 19, -16
	.cfi_offset 20, -8
	.loc 1 692 0
	mov	x20, x1
	.loc 1 703 0
	mov	w1, 0
.LVL238:
	.loc 1 692 0
	mov	x19, x0
	.loc 1 703 0
	bl	req_latency_check
.LVL239:
	.loc 1 704 0
	ldrb	w0, [x20,300]
	strb	w0, [x19,225]
	.loc 1 705 0
	str	wzr, [x19,544]
	.loc 1 706 0
	str	x19, [x20,240]
	.loc 1 714 0
	ldp	x19, x20, [sp,16]
	.cfi_restore 20
	.cfi_restore 19
.LVL240:
	ldp	x29, x30, [sp], 32
	.cfi_restore 30
	.cfi_restore 29
	.cfi_def_cfa 31, 0
	ret
	.cfi_endproc
.LFE2822:
	.size	hisi_init_request_from_bio, .-hisi_init_request_from_bio
	.align	2
	.global	hisi_blk_allocated_queue_init
	.type	hisi_blk_allocated_queue_init, %function
hisi_blk_allocated_queue_init:
.LFB2823:
	.loc 1 717 0
	.cfi_startproc
.LVL241:
	stp	x29, x30, [sp, -48]!
	.cfi_def_cfa_offset 48
	.cfi_offset 29, -48
	.cfi_offset 30, -40
.LBB377:
.LBB378:
	.loc 1 651 0
	mov	w1, 0
	mov	x2, 304
.LBE378:
.LBE377:
	.loc 1 717 0
	add	x29, sp, 0
	.cfi_def_cfa_register 29
	str	x21, [sp,32]
	.cfi_offset 21, -16
.LBB403:
.LBB400:
	.loc 1 651 0
	add	x21, x0, 584
.LBE400:
.LBE403:
	.loc 1 717 0
	stp	x19, x20, [sp,16]
	.cfi_offset 19, -32
	.cfi_offset 20, -24
	.loc 1 717 0
	mov	x19, x0
.LBB404:
.LBB401:
.LBB379:
.LBB380:
	.loc 1 622 0
	add	x20, x0, 608
.LBE380:
.LBE379:
	.loc 1 651 0
	mov	x0, x21
.LVL242:
.LBB397:
.LBB394:
.LBB381:
	.loc 1 637 0
	adrp	x21, .LANCHOR1
	add	x21, x21, :lo12:.LANCHOR1
.LBE381:
.LBE394:
.LBE397:
	.loc 1 651 0
	bl	memset
.LVL243:
	.loc 1 654 0
	str	x19, [x19,592]
.LBB398:
.LBB395:
	.loc 1 635 0
	add	x0, x19, 616
	.loc 1 634 0
	mov	w1, 5
.LBB382:
.LBB383:
	.file 8 "/cloud/jenkins/workspace/950_chipset_0425_component/opensource/component_code/vendor/huawei/extra/build/build_script/kirin_kernel_release/kernel/include/linux/list.h"
	.loc 8 27 0
	str	x0, [x19,616]
.LBE383:
.LBE382:
	.loc 1 635 0
	adrp	x4, blk_idle_notify_work
	.loc 1 634 0
	str	w1, [x19,704]
	.loc 1 635 0
	mov	x1, 68719476704
	.loc 1 622 0
	str	xzr, [x19,848]
	.loc 1 635 0
	add	x4, x4, :lo12:blk_idle_notify_work
	str	x1, [x19,608]
	.loc 1 635 0 is_stmt 0 discriminator 2
	mov	x3, 0
	.loc 1 623 0 is_stmt 1
	str	xzr, [x19,840]
	.loc 1 635 0 discriminator 2
	mov	w1, 2097152
.LBB385:
.LBB384:
	.loc 8 28 0
	str	x0, [x0,8]
.LBE384:
.LBE385:
	.loc 1 635 0 discriminator 2
	mov	x2, 0
	.loc 1 635 0 is_stmt 0
	str	x4, [x19,632]
	.loc 1 635 0 discriminator 2
	add	x0, x19, 640
.LBB386:
	.loc 1 637 0 is_stmt 1
	add	x21, x21, 8
.LBE386:
	.loc 1 635 0 discriminator 2
	bl	init_timer_key
.LVL244:
	.loc 1 635 0 is_stmt 0
	str	x20, [x20,64]
	adrp	x0, delayed_work_timer_fn
.LBB387:
	.loc 1 637 0 is_stmt 1
	adrp	x1, .LC17
.LBE387:
	.loc 1 635 0
	add	x0, x0, :lo12:delayed_work_timer_fn
	str	x0, [x20,56]
.LBB388:
	.loc 1 637 0
	mov	x2, x21
	add	x0, x19, 776
	add	x1, x1, :lo12:.LC17
.LBE388:
.LBB389:
.LBB390:
.LBB391:
	.loc 3 246 0
	str	wzr, [x19,772]
.LBE391:
.LBE390:
.LBE389:
.LBB392:
	.loc 1 637 0
	bl	__mutex_init
.LVL245:
.LBE392:
.LBB393:
	.loc 1 638 0
	adrp	x1, .LC18
	mov	x2, x21
	add	x0, x19, 712
	add	x1, x1, :lo12:.LC18
	bl	__init_rwsem
.LVL246:
.LBE393:
	str	xzr, [x20,152]
	.loc 1 639 0
	mov	w1, 1
.LBE395:
.LBE398:
.LBE401:
.LBE404:
	.loc 1 720 0
	mov	x0, x19
.LBB405:
.LBB402:
.LBB399:
.LBB396:
	.loc 1 639 0
	str	w1, [x20,216]
.LBE396:
.LBE399:
.LBE402:
.LBE405:
	.loc 1 720 0
	bl	blk_queue_async_flush_init
.LVL247:
	.loc 1 723 0
	mov	x0, x19
	bl	blk_queue_latency_init
.LVL248:
	.loc 1 725 0
	ldr	x21, [sp,32]
	.cfi_restore 21
	ldp	x19, x20, [sp,16]
	.cfi_restore 20
	.cfi_restore 19
.LVL249:
	ldp	x29, x30, [sp], 48
	.cfi_restore 30
	.cfi_restore 29
	.cfi_def_cfa 31, 0
	ret
	.cfi_endproc
.LFE2823:
	.size	hisi_blk_allocated_queue_init, .-hisi_blk_allocated_queue_init
	.align	2
	.global	hisi_blk_mq_init_allocated_queue
	.type	hisi_blk_mq_init_allocated_queue, %function
hisi_blk_mq_init_allocated_queue:
.LFB2824:
	.loc 1 728 0
	.cfi_startproc
.LVL250:
	.loc 1 742 0
	ret
	.cfi_endproc
.LFE2824:
	.size	hisi_blk_mq_init_allocated_queue, .-hisi_blk_mq_init_allocated_queue
	.align	2
	.global	hisi_blk_mq_free_queue
	.type	hisi_blk_mq_free_queue, %function
hisi_blk_mq_free_queue:
.LFB2825:
	.loc 1 745 0
	.cfi_startproc
.LVL251:
	.loc 1 752 0
	ret
	.cfi_endproc
.LFE2825:
	.size	hisi_blk_mq_free_queue, .-hisi_blk_mq_free_queue
	.align	2
	.global	hisi_blk_cleanup_queue
	.type	hisi_blk_cleanup_queue, %function
hisi_blk_cleanup_queue:
.LFB2826:
	.loc 1 755 0
	.cfi_startproc
.LVL252:
	stp	x29, x30, [sp, -16]!
	.cfi_def_cfa_offset 16
	.cfi_offset 29, -16
	.cfi_offset 30, -8
	add	x29, sp, 0
	.cfi_def_cfa_register 29
	.loc 1 757 0
	bl	blk_queue_latency_deinit
.LVL253:
	.loc 1 759 0
	ldp	x29, x30, [sp], 16
	.cfi_restore 30
	.cfi_restore 29
	.cfi_def_cfa 31, 0
	ret
	.cfi_endproc
.LFE2826:
	.size	hisi_blk_cleanup_queue, .-hisi_blk_cleanup_queue
	.align	2
	.global	hisi_blk_allocated_tags_init
	.type	hisi_blk_allocated_tags_init, %function
hisi_blk_allocated_tags_init:
.LFB2827:
	.loc 1 762 0
	.cfi_startproc
.LVL254:
	stp	x29, x30, [sp, -64]!
	.cfi_def_cfa_offset 64
	.cfi_offset 29, -64
	.cfi_offset 30, -56
.LBB420:
	.loc 1 763 0
	adrp	x1, .LC19
.LBE420:
	.loc 1 762 0
	add	x29, sp, 0
	.cfi_def_cfa_register 29
	stp	x21, x22, [sp,32]
	.cfi_offset 21, -32
	.cfi_offset 22, -24
.LBB421:
	.loc 1 763 0
	adrp	x21, .LANCHOR1
	add	x1, x1, :lo12:.LC19
	add	x21, x21, :lo12:.LANCHOR1
.LBE421:
	.loc 1 762 0
	str	x23, [sp,48]
.LBB422:
	.loc 1 763 0
	add	x21, x21, 8
.LBE422:
.LBB423:
.LBB424:
	.loc 1 653 0
	mov	w22, 1
.LBE424:
.LBE423:
	.loc 1 762 0
	stp	x19, x20, [sp,16]
	.cfi_offset 23, -16
	.cfi_offset 19, -48
	.cfi_offset 20, -40
.LBB446:
	.loc 1 763 0
	mov	x2, x21
.LBE446:
	.loc 1 762 0
	mov	x19, x0
.LBB447:
	.loc 1 763 0
	add	x0, x0, 48
.LVL255:
.LBE447:
.LBB448:
.LBB442:
	.loc 1 651 0
	add	x23, x19, 112
.LBB425:
.LBB426:
	.loc 1 622 0
	add	x20, x19, 136
.LBE426:
.LBE425:
.LBE442:
.LBE448:
.LBB449:
	.loc 1 763 0
	bl	__mutex_init
.LVL256:
.LBE449:
	.loc 1 764 0
	add	x3, x19, 96
.LBB450:
.LBB443:
	.loc 1 651 0
	mov	w1, 0
.LBE443:
.LBE450:
.LBB451:
.LBB452:
	.loc 8 27 0
	str	x3, [x19,96]
.LBE452:
.LBE451:
.LBB454:
.LBB444:
	.loc 1 651 0
	mov	x2, 304
.LBE444:
.LBE454:
.LBB455:
.LBB453:
	.loc 8 28 0
	str	x3, [x19,104]
.LBE453:
.LBE455:
.LBB456:
.LBB445:
	.loc 1 651 0
	mov	x0, x23
	bl	memset
.LVL257:
	.loc 1 653 0
	str	w22, [x19,112]
.LBB440:
.LBB438:
	.loc 1 634 0
	mov	w1, 5
	.loc 1 635 0
	add	x0, x19, 144
	.loc 1 634 0
	str	w1, [x19,232]
	.loc 1 635 0
	adrp	x4, blk_idle_notify_work
	mov	x1, 68719476704
	add	x4, x4, :lo12:blk_idle_notify_work
	.loc 1 635 0 is_stmt 0 discriminator 2
	mov	x3, 0
	.loc 1 635 0
	str	x4, [x19,160]
	str	x1, [x19,136]
	.loc 1 635 0 discriminator 2
	mov	x2, 0
.LBB427:
.LBB428:
	.loc 8 27 0 is_stmt 1
	str	x0, [x19,144]
.LBE428:
.LBE427:
	.loc 1 635 0 discriminator 2
	mov	w1, 2097152
.LBB430:
.LBB429:
	.loc 8 28 0
	str	x0, [x19,152]
.LBE429:
.LBE430:
	.loc 1 635 0 discriminator 2
	add	x0, x19, 168
.LBE438:
.LBE440:
	.loc 1 654 0
	str	x19, [x19,120]
.LBB441:
.LBB439:
	.loc 1 622 0
	str	xzr, [x19,376]
	.loc 1 623 0
	str	xzr, [x19,368]
	.loc 1 635 0 discriminator 2
	bl	init_timer_key
.LVL258:
	.loc 1 635 0 is_stmt 0
	str	x20, [x20,64]
	adrp	x0, delayed_work_timer_fn
.LBB431:
	.loc 1 637 0 is_stmt 1
	adrp	x1, .LC17
.LBE431:
	.loc 1 635 0
	add	x0, x0, :lo12:delayed_work_timer_fn
	str	x0, [x20,56]
.LBB432:
	.loc 1 637 0
	mov	x2, x21
	add	x0, x19, 304
	add	x1, x1, :lo12:.LC17
.LBE432:
.LBB433:
.LBB434:
.LBB435:
	.loc 3 246 0
	str	wzr, [x19,300]
.LBE435:
.LBE434:
.LBE433:
.LBB436:
	.loc 1 637 0
	bl	__mutex_init
.LVL259:
.LBE436:
.LBB437:
	.loc 1 638 0
	adrp	x1, .LC18
	add	x0, x19, 240
	mov	x2, x21
	add	x1, x1, :lo12:.LC18
	bl	__init_rwsem
.LVL260:
.LBE437:
	str	xzr, [x20,152]
	.loc 1 639 0
	str	w22, [x20,216]
.LBE439:
.LBE441:
.LBE445:
.LBE456:
	.loc 1 766 0
	ldp	x19, x20, [sp,16]
	.cfi_restore 20
	.cfi_restore 19
.LVL261:
	ldp	x21, x22, [sp,32]
	.cfi_restore 22
	.cfi_restore 21
	ldr	x23, [sp,48]
	.cfi_restore 23
	ldp	x29, x30, [sp], 64
	.cfi_restore 30
	.cfi_restore 29
	.cfi_def_cfa 31, 0
	ret
	.cfi_endproc
.LFE2827:
	.size	hisi_blk_allocated_tags_init, .-hisi_blk_allocated_tags_init
	.align	2
	.global	blk_add_queue_tags
	.type	blk_add_queue_tags, %function
blk_add_queue_tags:
.LFB2828:
	.loc 1 769 0
	.cfi_startproc
.LVL262:
	stp	x29, x30, [sp, -48]!
	.cfi_def_cfa_offset 48
	.cfi_offset 29, -48
	.cfi_offset 30, -40
	add	x29, sp, 0
	.cfi_def_cfa_register 29
	stp	x19, x20, [sp,16]
	.cfi_offset 19, -32
	.cfi_offset 20, -24
	.loc 1 770 0
	add	x20, x0, 48
	.loc 1 769 0
	mov	x19, x0
	.loc 1 770 0
	mov	x0, x20
.LVL263:
	.loc 1 769 0
	str	x1, [x29,40]
	.loc 1 771 0
	add	x19, x19, 96
.LVL264:
	.loc 1 770 0
	bl	mutex_lock
.LVL265:
	.loc 1 771 0
	ldr	x1, [x29,40]
.LVL266:
	.loc 1 772 0
	mov	x0, x20
.LVL267:
.LBB457:
.LBB458:
	.loc 8 77 0
	ldr	x3, [x19,8]
.LBE458:
.LBE457:
	.loc 1 771 0
	add	x2, x1, 12288
	add	x2, x2, 1360
.LBB462:
.LBB461:
.LBB459:
.LBB460:
	.loc 8 42 0
	str	x2, [x19,8]
	.loc 8 43 0
	str	x19, [x1,13648]
.LVL268:
	.loc 8 44 0
	str	x3, [x2,8]
	.loc 8 45 0
	str	x2, [x3]
.LBE460:
.LBE459:
.LBE461:
.LBE462:
	.loc 1 772 0
	bl	mutex_unlock
.LVL269:
	.loc 1 773 0
	ldp	x19, x20, [sp,16]
	.cfi_restore 20
	.cfi_restore 19
	ldp	x29, x30, [sp], 48
	.cfi_restore 30
	.cfi_restore 29
	.cfi_def_cfa 31, 0
	ret
	.cfi_endproc
.LFE2828:
	.size	blk_add_queue_tags, .-blk_add_queue_tags
	.align	2
	.global	hisi_blk_mq_allocated_tagset_init
	.type	hisi_blk_mq_allocated_tagset_init, %function
hisi_blk_mq_allocated_tagset_init:
.LFB2829:
	.loc 1 776 0
	.cfi_startproc
.LVL270:
	stp	x29, x30, [sp, -48]!
	.cfi_def_cfa_offset 48
	.cfi_offset 29, -48
	.cfi_offset 30, -40
.LBB474:
.LBB475:
	.loc 1 651 0
	mov	w1, 0
	mov	x2, 304
.LBE475:
.LBE474:
	.loc 1 776 0
	add	x29, sp, 0
	.cfi_def_cfa_register 29
	str	x21, [sp,32]
	.cfi_offset 21, -16
.LBB500:
.LBB498:
	.loc 1 651 0
	add	x21, x0, 128
.LBE498:
.LBE500:
	.loc 1 776 0
	stp	x19, x20, [sp,16]
	.cfi_offset 19, -32
	.cfi_offset 20, -24
	.loc 1 776 0
	mov	x19, x0
.LBB501:
.LBB499:
	.loc 1 651 0
	mov	x0, x21
.LVL271:
.LBB476:
.LBB477:
	.loc 1 622 0
	add	x20, x19, 152
.LBB478:
	.loc 1 637 0
	adrp	x21, .LANCHOR1
.LBE478:
.LBE477:
.LBE476:
	.loc 1 651 0
	bl	memset
.LVL272:
.LBB495:
.LBB492:
.LBB479:
	.loc 1 637 0
	add	x21, x21, :lo12:.LANCHOR1
.LBE479:
.LBE492:
.LBE495:
	.loc 1 653 0
	mov	w0, 2
	str	w0, [x19,128]
.LBB496:
.LBB493:
	.loc 1 634 0
	mov	w0, 5
	.loc 1 635 0
	add	x1, x19, 160
	.loc 1 634 0
	str	w0, [x19,248]
	.loc 1 635 0
	adrp	x4, blk_idle_notify_work
	mov	x0, 68719476704
	add	x4, x4, :lo12:blk_idle_notify_work
	.loc 1 635 0 is_stmt 0 discriminator 2
	mov	x3, 0
	.loc 1 635 0
	str	x4, [x19,176]
	str	x0, [x19,152]
	.loc 1 635 0 discriminator 2
	mov	x2, 0
.LBB480:
.LBB481:
	.loc 8 27 0 is_stmt 1
	str	x1, [x19,160]
.LBE481:
.LBE480:
	.loc 1 635 0 discriminator 2
	add	x0, x19, 184
.LBB483:
.LBB482:
	.loc 8 28 0
	str	x1, [x19,168]
.LBE482:
.LBE483:
	.loc 1 635 0 discriminator 2
	mov	w1, 2097152
.LBE493:
.LBE496:
	.loc 1 654 0
	str	x19, [x19,136]
.LBB497:
.LBB494:
.LBB484:
	.loc 1 637 0
	add	x21, x21, 8
.LBE484:
	.loc 1 622 0
	str	xzr, [x19,392]
	.loc 1 623 0
	str	xzr, [x19,384]
	.loc 1 635 0 discriminator 2
	bl	init_timer_key
.LVL273:
	.loc 1 635 0 is_stmt 0
	str	x20, [x20,64]
	adrp	x0, delayed_work_timer_fn
.LBB485:
	.loc 1 637 0 is_stmt 1
	adrp	x1, .LC17
.LBE485:
	.loc 1 635 0
	add	x0, x0, :lo12:delayed_work_timer_fn
	str	x0, [x20,56]
.LBB486:
	.loc 1 637 0
	mov	x2, x21
	add	x0, x19, 320
	add	x1, x1, :lo12:.LC17
.LBE486:
.LBB487:
.LBB488:
.LBB489:
	.loc 3 246 0
	str	wzr, [x19,316]
.LBE489:
.LBE488:
.LBE487:
.LBB490:
	.loc 1 637 0
	bl	__mutex_init
.LVL274:
.LBE490:
.LBB491:
	.loc 1 638 0
	adrp	x1, .LC18
	add	x0, x19, 256
	mov	x2, x21
	add	x1, x1, :lo12:.LC18
	bl	__init_rwsem
.LVL275:
.LBE491:
	str	xzr, [x20,152]
	.loc 1 639 0
	mov	w0, 1
	str	w0, [x20,216]
.LBE494:
.LBE497:
.LBE499:
.LBE501:
	.loc 1 778 0
	ldp	x19, x20, [sp,16]
	.cfi_restore 20
	.cfi_restore 19
.LVL276:
	ldr	x21, [sp,32]
	.cfi_restore 21
	ldp	x29, x30, [sp], 48
	.cfi_restore 30
	.cfi_restore 29
	.cfi_def_cfa 31, 0
	ret
	.cfi_endproc
.LFE2829:
	.size	hisi_blk_mq_allocated_tagset_init, .-hisi_blk_mq_allocated_tagset_init
	.align	2
	.global	hisi_blk_queue_register
	.type	hisi_blk_queue_register, %function
hisi_blk_queue_register:
.LFB2830:
	.loc 1 781 0
	.cfi_startproc
.LVL277:
	.loc 1 782 0
	str	x1, [x0,576]
	.loc 1 786 0
	ret
	.cfi_endproc
.LFE2830:
	.size	hisi_blk_queue_register, .-hisi_blk_queue_register
	.section	.init.text,"ax",%progbits
	.align	2
	.global	hisi_blk_dev_init
	.type	hisi_blk_dev_init, %function
hisi_blk_dev_init:
.LFB2831:
	.loc 1 789 0
	.cfi_startproc
	stp	x29, x30, [sp, -16]!
	.cfi_def_cfa_offset 16
	.cfi_offset 29, -16
	.cfi_offset 30, -8
	.loc 1 790 0
	adrp	x0, .LC20
	mov	w2, 0
	.loc 1 789 0
	add	x29, sp, 0
	.cfi_def_cfa_register 29
	.loc 1 790 0
	mov	x3, 0
	mov	x4, 0
	mov	w1, 24
	add	x0, x0, :lo12:.LC20
	.loc 1 789 0
	.loc 1 790 0
	bl	__alloc_workqueue_key
.LVL278:
	adrp	x1, .LANCHOR1
	str	x0, [x1,#:lo12:.LANCHOR1]
	.loc 1 792 0
	bl	blk_latency_log_init
.LVL279:
	.loc 1 795 0
	mov	w0, 0
	ldp	x29, x30, [sp], 16
	.cfi_restore 30
	.cfi_restore 29
	.cfi_def_cfa 31, 0
	ret
	.cfi_endproc
.LFE2831:
	.size	hisi_blk_dev_init, .-hisi_blk_dev_init
	.global	hisi_io_type_string_WHM
	.global	hisi_io_type_string_WH
	.global	hisi_io_type_string_WHMA
	.global	hisi_io_type_string_WHA
	.global	hisi_io_type_string_WHMF
	.global	hisi_io_type_string_WHF
	.global	hisi_io_type_string_WHMFA
	.global	hisi_io_type_string_WHFA
	.global	hisi_io_type_string_WHD
	.global	hisi_io_type_string_WSM
	.global	hisi_io_type_string_WS
	.global	hisi_io_type_string_WSMA
	.global	hisi_io_type_string_WSA
	.global	hisi_io_type_string_WSMF
	.global	hisi_io_type_string_WSF
	.global	hisi_io_type_string_WSMFA
	.global	hisi_io_type_string_WSFA
	.global	hisi_io_type_string_WSD
	.global	hisi_io_type_string_WM
	.global	hisi_io_type_string_W
	.global	hisi_io_type_string_WMA
	.global	hisi_io_type_string_WA
	.global	hisi_io_type_string_WMF
	.global	hisi_io_type_string_WF
	.global	hisi_io_type_string_WMFA
	.global	hisi_io_type_string_WFA
	.global	hisi_io_type_string_WD
	.global	hisi_io_type_string_RSM
	.global	hisi_io_type_string_RM
	.global	hisi_io_type_string_RS
	.global	hisi_io_type_string_R
	.section	.rodata
	.align	3
.LANCHOR0 = . + 0
	.type	__func__.35126, %object
	.size	__func__.35126, 49
__func__.35126:
	.string	"blk_busy_idle_handler_latency_check_timer_expire"
	.zero	7
	.type	__func__.35138, %object
	.size	__func__.35138, 29
__func__.35138:
	.string	"blk_busy_idle_notify_handler"
	.zero	3
	.type	__func__.35186, %object
	.size	__func__.35186, 15
__func__.35186:
	.string	"blk_idle_count"
	.zero	1
	.type	__func__.35149, %object
	.size	__func__.35149, 29
__func__.35149:
	.string	"blk_busy_idle_event_register"
	.zero	3
	.type	__func__.35155, %object
	.size	__func__.35155, 31
__func__.35155:
	.string	"blk_busy_idle_event_unregister"
	.zero	1
	.type	CSWTCH.100, %object
	.size	CSWTCH.100, 24
CSWTCH.100:
	.xword	.LC21
	.xword	.LC22
	.xword	.LC23
	.data
	.align	3
.LANCHOR2 = . + 0
	.type	hisi_io_type_string_WSD, %object
	.size	hisi_io_type_string_WSD, 8
hisi_io_type_string_WSD:
	.xword	.LC41
	.type	hisi_io_type_string_WSMFA, %object
	.size	hisi_io_type_string_WSMFA, 8
hisi_io_type_string_WSMFA:
	.xword	.LC39
	.type	hisi_io_type_string_WSMF, %object
	.size	hisi_io_type_string_WSMF, 8
hisi_io_type_string_WSMF:
	.xword	.LC37
	.type	hisi_io_type_string_WSMA, %object
	.size	hisi_io_type_string_WSMA, 8
hisi_io_type_string_WSMA:
	.xword	.LC35
	.type	hisi_io_type_string_WSM, %object
	.size	hisi_io_type_string_WSM, 8
hisi_io_type_string_WSM:
	.xword	.LC33
	.type	hisi_io_type_string_WSFA, %object
	.size	hisi_io_type_string_WSFA, 8
hisi_io_type_string_WSFA:
	.xword	.LC40
	.type	hisi_io_type_string_WSF, %object
	.size	hisi_io_type_string_WSF, 8
hisi_io_type_string_WSF:
	.xword	.LC38
	.type	hisi_io_type_string_WSA, %object
	.size	hisi_io_type_string_WSA, 8
hisi_io_type_string_WSA:
	.xword	.LC36
	.type	hisi_io_type_string_WS, %object
	.size	hisi_io_type_string_WS, 8
hisi_io_type_string_WS:
	.xword	.LC34
	.type	hisi_io_type_string_WD, %object
	.size	hisi_io_type_string_WD, 8
hisi_io_type_string_WD:
	.xword	.LC50
	.type	hisi_io_type_string_WMFA, %object
	.size	hisi_io_type_string_WMFA, 8
hisi_io_type_string_WMFA:
	.xword	.LC48
	.type	hisi_io_type_string_WFA, %object
	.size	hisi_io_type_string_WFA, 8
hisi_io_type_string_WFA:
	.xword	.LC49
	.type	hisi_io_type_string_WMF, %object
	.size	hisi_io_type_string_WMF, 8
hisi_io_type_string_WMF:
	.xword	.LC46
	.type	hisi_io_type_string_WF, %object
	.size	hisi_io_type_string_WF, 8
hisi_io_type_string_WF:
	.xword	.LC47
	.type	hisi_io_type_string_WMA, %object
	.size	hisi_io_type_string_WMA, 8
hisi_io_type_string_WMA:
	.xword	.LC44
	.type	hisi_io_type_string_WA, %object
	.size	hisi_io_type_string_WA, 8
hisi_io_type_string_WA:
	.xword	.LC45
	.type	hisi_io_type_string_WM, %object
	.size	hisi_io_type_string_WM, 8
hisi_io_type_string_WM:
	.xword	.LC42
	.type	hisi_io_type_string_W, %object
	.size	hisi_io_type_string_W, 8
hisi_io_type_string_W:
	.xword	.LC43
	.type	hisi_io_type_string_RSM, %object
	.size	hisi_io_type_string_RSM, 8
hisi_io_type_string_RSM:
	.xword	.LC51
	.type	hisi_io_type_string_RS, %object
	.size	hisi_io_type_string_RS, 8
hisi_io_type_string_RS:
	.xword	.LC53
	.type	hisi_io_type_string_RM, %object
	.size	hisi_io_type_string_RM, 8
hisi_io_type_string_RM:
	.xword	.LC52
	.type	hisi_io_type_string_R, %object
	.size	hisi_io_type_string_R, 8
hisi_io_type_string_R:
	.xword	.LC54
	.type	hisi_io_type_string_WHM, %object
	.size	hisi_io_type_string_WHM, 8
hisi_io_type_string_WHM:
	.xword	.LC24
	.type	hisi_io_type_string_WH, %object
	.size	hisi_io_type_string_WH, 8
hisi_io_type_string_WH:
	.xword	.LC25
	.type	hisi_io_type_string_WHMA, %object
	.size	hisi_io_type_string_WHMA, 8
hisi_io_type_string_WHMA:
	.xword	.LC26
	.type	hisi_io_type_string_WHA, %object
	.size	hisi_io_type_string_WHA, 8
hisi_io_type_string_WHA:
	.xword	.LC27
	.type	hisi_io_type_string_WHMF, %object
	.size	hisi_io_type_string_WHMF, 8
hisi_io_type_string_WHMF:
	.xword	.LC28
	.type	hisi_io_type_string_WHF, %object
	.size	hisi_io_type_string_WHF, 8
hisi_io_type_string_WHF:
	.xword	.LC29
	.type	hisi_io_type_string_WHMFA, %object
	.size	hisi_io_type_string_WHMFA, 8
hisi_io_type_string_WHMFA:
	.xword	.LC30
	.type	hisi_io_type_string_WHFA, %object
	.size	hisi_io_type_string_WHFA, 8
hisi_io_type_string_WHFA:
	.xword	.LC31
	.type	hisi_io_type_string_WHD, %object
	.size	hisi_io_type_string_WHD, 8
hisi_io_type_string_WHD:
	.xword	.LC32
	.section	.rodata.str1.8,"aMS",%progbits,1
	.align	3
.LC0:
	.string	"\0010<%s> %s notify block process time is more than %d ms \r\n"
	.zero	6
.LC1:
	.string	"\0010<%s> %s notify block illegal!callback = %pK \r\n"
	.zero	7
.LC2:
	.string	"\0010<%s> %s blk_busy_idle_notifier_callback meets error! \r\n"
	.zero	6
.LC3:
	.string	"\0010<%s> %s blk_busy_idle_notifier_callback more than 10ms, actual %lld ms \r\n"
	.zero	4
.LC4:
	.string	"\0010<%s> io_count has been zero \r\n"
	.zero	7
.LC5:
	.string	"\0010<%s> %s notify block register illegal!callback = %pK \r\n"
	.zero	6
.LC6:
	.string	"\0010<%s> %s notify block has been register to %pK, current lld is %pK\r\n"
	.zero	2
.LC7:
	.string	"\0016%s registered to busy/idle module.\n"
	.zero	2
.LC8:
	.string	"\0010<%s> %s notify block illegal!current lld is %pK, notify registered lld is %pK \r\n"
	.zero	5
.LC9:
	.string	"\0016%s unregistered from busy/idle module.\n"
	.zero	6
.LC10:
	.string	"<%s:%llu> "
	.zero	5
.LC11:
	.string	"\0013bio: 0x%llx type:%s len:%d dispatch pid: %d <%s>, task: 0x%llx \n"
	.zero	5
.LC12:
	.string	"\0013bio: 0x%llx, type:%s len:%d\n"
	.zero	1
.LC13:
	.string	"\0013trace:%s \n"
	.zero	3
.LC14:
	.string	"TYPE_ERR"
	.zero	7
.LC15:
	.string	"\0013rq: 0x%llx type:%s len:%d %s dispatch pid: %d <%s>, task: 0x%llx \n"
	.zero	3
.LC16:
	.string	"\0013rq: 0x%llx, type:%s len:%d %s \n"
	.zero	6
.LC17:
	.string	"&blk_idle->io_count_mutex"
	.zero	6
.LC18:
	.string	"&(&blk_idle->blk_idle_event_subscribers)->rwsem"
.LC19:
	.string	"&tags->tag_list_lock"
	.zero	3
.LC20:
	.string	"busy_idle_notify"
	.zero	7
.LC21:
	.string	"TYPE_FS"
.LC22:
	.string	"TYPE_BLOCK_PC"
	.zero	2
.LC23:
	.string	"TYPE_DRV_PRIV"
	.zero	2
.LC24:
	.string	"WHM"
	.zero	4
.LC25:
	.string	"WH"
	.zero	5
.LC26:
	.string	"WHMA"
	.zero	3
.LC27:
	.string	"WHA"
	.zero	4
.LC28:
	.string	"WHMF"
	.zero	3
.LC29:
	.string	"WHF"
	.zero	4
.LC30:
	.string	"WHMFA"
	.zero	2
.LC31:
	.string	"WHFA"
	.zero	3
.LC32:
	.string	"WHD"
	.zero	4
.LC33:
	.string	"WSM"
	.zero	4
.LC34:
	.string	"WS"
	.zero	5
.LC35:
	.string	"WSMA"
	.zero	3
.LC36:
	.string	"WSA"
	.zero	4
.LC37:
	.string	"WSMF"
	.zero	3
.LC38:
	.string	"WSF"
	.zero	4
.LC39:
	.string	"WSMFA"
	.zero	2
.LC40:
	.string	"WSFA"
	.zero	3
.LC41:
	.string	"WSD"
	.zero	4
.LC42:
	.string	"WM"
	.zero	5
.LC43:
	.string	"W"
	.zero	6
.LC44:
	.string	"WMA"
	.zero	4
.LC45:
	.string	"WA"
	.zero	5
.LC46:
	.string	"WMF"
	.zero	4
.LC47:
	.string	"WF"
	.zero	5
.LC48:
	.string	"WMFA"
	.zero	3
.LC49:
	.string	"WFA"
	.zero	4
.LC50:
	.string	"WD"
	.zero	5
.LC51:
	.string	"RSM"
	.zero	4
.LC52:
	.string	"RM"
	.zero	5
.LC53:
	.string	"RS"
	.zero	5
.LC54:
	.string	"R"
	.bss
	.align	3
.LANCHOR1 = . + 0
	.type	blk_idle_notify_workqueue, %object
	.size	blk_idle_notify_workqueue, 8
blk_idle_notify_workqueue:
	.zero	8
	.type	__key.35293, %object
	.size	__key.35293, 0
__key.35293:
	.type	__key.35294, %object
	.size	__key.35294, 0
__key.35294:
	.type	__key.35323, %object
	.size	__key.35323, 0
__key.35323:
	.text
.Letext0:
	.file 9 "/cloud/jenkins/workspace/950_chipset_0425_component/opensource/component_code/vendor/huawei/extra/build/build_script/kirin_kernel_release/kernel/include/uapi/asm-generic/int-ll64.h"
	.file 10 "/cloud/jenkins/workspace/950_chipset_0425_component/opensource/component_code/vendor/huawei/extra/build/build_script/kirin_kernel_release/kernel/include/asm-generic/int-ll64.h"
	.file 11 "/cloud/jenkins/workspace/950_chipset_0425_component/opensource/component_code/vendor/huawei/extra/build/build_script/kirin_kernel_release/kernel/include/uapi/asm-generic/posix_types.h"
	.file 12 "/cloud/jenkins/workspace/950_chipset_0425_component/opensource/component_code/vendor/huawei/extra/build/build_script/kirin_kernel_release/kernel/include/linux/export.h"
	.file 13 "/cloud/jenkins/workspace/950_chipset_0425_component/opensource/component_code/vendor/huawei/extra/build/build_script/kirin_kernel_release/kernel/include/linux/types.h"
	.file 14 "/cloud/jenkins/workspace/950_chipset_0425_component/opensource/component_code/vendor/huawei/extra/build/build_script/kirin_kernel_release/kernel/include/linux/capability.h"
	.file 15 "/cloud/jenkins/workspace/950_chipset_0425_component/opensource/component_code/vendor/huawei/extra/build/build_script/kirin_kernel_release/kernel/include/asm-generic/bug.h"
	.file 16 "/cloud/jenkins/workspace/950_chipset_0425_component/opensource/component_code/vendor/huawei/extra/build/build_script/kirin_kernel_release/kernel/include/linux/thread_info.h"
	.file 17 "/cloud/jenkins/workspace/950_chipset_0425_component/opensource/component_code/vendor/huawei/extra/build/build_script/kirin_kernel_release/kernel/include/uapi/linux/time.h"
	.file 18 "/cloud/jenkins/workspace/950_chipset_0425_component/opensource/component_code/vendor/huawei/extra/build/build_script/kirin_kernel_release/kernel/arch/arm64/include/asm/compat.h"
	.file 19 "/cloud/jenkins/workspace/950_chipset_0425_component/opensource/component_code/vendor/huawei/extra/build/build_script/kirin_kernel_release/kernel/include/uapi/asm-generic/poll.h"
	.file 20 "/cloud/jenkins/workspace/950_chipset_0425_component/opensource/component_code/vendor/huawei/extra/build/build_script/kirin_kernel_release/kernel/include/linux/sched.h"
	.file 21 "/cloud/jenkins/workspace/950_chipset_0425_component/opensource/component_code/vendor/huawei/extra/build/build_script/kirin_kernel_release/kernel/arch/arm64/include/uapi/asm/ptrace.h"
	.file 22 "/cloud/jenkins/workspace/950_chipset_0425_component/opensource/component_code/vendor/huawei/extra/build/build_script/kirin_kernel_release/kernel/arch/arm64/include/asm/spinlock_types.h"
	.file 23 "/cloud/jenkins/workspace/950_chipset_0425_component/opensource/component_code/vendor/huawei/extra/build/build_script/kirin_kernel_release/kernel/include/linux/spinlock_types.h"
	.file 24 "/cloud/jenkins/workspace/950_chipset_0425_component/opensource/component_code/vendor/huawei/extra/build/build_script/kirin_kernel_release/kernel/include/linux/rwlock_types.h"
	.file 25 "/cloud/jenkins/workspace/950_chipset_0425_component/opensource/component_code/vendor/huawei/extra/build/build_script/kirin_kernel_release/kernel/arch/arm64/include/asm/fpsimd.h"
	.file 26 "/cloud/jenkins/workspace/950_chipset_0425_component/opensource/component_code/vendor/huawei/extra/build/build_script/kirin_kernel_release/kernel/arch/arm64/include/asm/processor.h"
	.file 27 "/cloud/jenkins/workspace/950_chipset_0425_component/opensource/component_code/vendor/huawei/extra/build/build_script/kirin_kernel_release/kernel/include/asm-generic/atomic-long.h"
	.file 28 "/cloud/jenkins/workspace/950_chipset_0425_component/opensource/component_code/vendor/huawei/extra/build/build_script/kirin_kernel_release/kernel/include/linux/seqlock.h"
	.file 29 "/cloud/jenkins/workspace/950_chipset_0425_component/opensource/component_code/vendor/huawei/extra/build/build_script/kirin_kernel_release/kernel/include/linux/plist.h"
	.file 30 "/cloud/jenkins/workspace/950_chipset_0425_component/opensource/component_code/vendor/huawei/extra/build/build_script/kirin_kernel_release/kernel/include/linux/cpumask.h"
	.file 31 "/cloud/jenkins/workspace/950_chipset_0425_component/opensource/component_code/vendor/huawei/extra/build/build_script/kirin_kernel_release/kernel/include/linux/wait.h"
	.file 32 "/cloud/jenkins/workspace/950_chipset_0425_component/opensource/component_code/vendor/huawei/extra/build/build_script/kirin_kernel_release/kernel/include/linux/completion.h"
	.file 33 "/cloud/jenkins/workspace/950_chipset_0425_component/opensource/component_code/vendor/huawei/extra/build/build_script/kirin_kernel_release/kernel/include/linux/rbtree.h"
	.file 34 "/cloud/jenkins/workspace/950_chipset_0425_component/opensource/component_code/vendor/huawei/extra/build/build_script/kirin_kernel_release/kernel/include/linux/nodemask.h"
	.file 35 "/cloud/jenkins/workspace/950_chipset_0425_component/opensource/component_code/vendor/huawei/extra/build/build_script/kirin_kernel_release/kernel/include/linux/osq_lock.h"
	.file 36 "/cloud/jenkins/workspace/950_chipset_0425_component/opensource/component_code/vendor/huawei/extra/build/build_script/kirin_kernel_release/kernel/include/linux/rwsem.h"
	.file 37 "/cloud/jenkins/workspace/950_chipset_0425_component/opensource/component_code/vendor/huawei/extra/build/build_script/kirin_kernel_release/kernel/include/linux/mm_types.h"
	.file 38 "/cloud/jenkins/workspace/950_chipset_0425_component/opensource/component_code/vendor/huawei/extra/build/build_script/kirin_kernel_release/kernel/include/linux/lockdep.h"
	.file 39 "/cloud/jenkins/workspace/950_chipset_0425_component/opensource/component_code/vendor/huawei/extra/build/build_script/kirin_kernel_release/kernel/include/linux/uprobes.h"
	.file 40 "/cloud/jenkins/workspace/950_chipset_0425_component/opensource/component_code/vendor/huawei/extra/build/build_script/kirin_kernel_release/kernel/include/linux/timer.h"
	.file 41 "/cloud/jenkins/workspace/950_chipset_0425_component/opensource/component_code/vendor/huawei/extra/build/build_script/kirin_kernel_release/kernel/include/linux/stddef.h"
	.file 42 "/cloud/jenkins/workspace/950_chipset_0425_component/opensource/component_code/vendor/huawei/extra/build/build_script/kirin_kernel_release/kernel/arch/arm64/include/asm/pgtable-types.h"
	.file 43 "/cloud/jenkins/workspace/950_chipset_0425_component/opensource/component_code/vendor/huawei/extra/build/build_script/kirin_kernel_release/kernel/arch/arm64/include/asm/mmu.h"
	.file 44 "/cloud/jenkins/workspace/950_chipset_0425_component/opensource/component_code/vendor/huawei/extra/build/build_script/kirin_kernel_release/kernel/include/linux/fs.h"
	.file 45 "/cloud/jenkins/workspace/950_chipset_0425_component/opensource/component_code/vendor/huawei/extra/build/build_script/kirin_kernel_release/kernel/include/linux/mm.h"
	.file 46 "/cloud/jenkins/workspace/950_chipset_0425_component/opensource/component_code/vendor/huawei/extra/build/build_script/kirin_kernel_release/kernel/include/asm-generic/cputime_jiffies.h"
	.file 47 "/cloud/jenkins/workspace/950_chipset_0425_component/opensource/component_code/vendor/huawei/extra/build/build_script/kirin_kernel_release/kernel/include/linux/llist.h"
	.file 48 "/cloud/jenkins/workspace/950_chipset_0425_component/opensource/component_code/vendor/huawei/extra/build/build_script/kirin_kernel_release/kernel/include/linux/smp.h"
	.file 49 "/cloud/jenkins/workspace/950_chipset_0425_component/opensource/component_code/vendor/huawei/extra/build/build_script/kirin_kernel_release/kernel/arch/arm64/include/asm/smp.h"
	.file 50 "/cloud/jenkins/workspace/950_chipset_0425_component/opensource/component_code/vendor/huawei/extra/build/build_script/kirin_kernel_release/kernel/include/linux/uidgid.h"
	.file 51 "/cloud/jenkins/workspace/950_chipset_0425_component/opensource/component_code/vendor/huawei/extra/build/build_script/kirin_kernel_release/kernel/include/uapi/asm-generic/signal.h"
	.file 52 "/cloud/jenkins/workspace/950_chipset_0425_component/opensource/component_code/vendor/huawei/extra/build/build_script/kirin_kernel_release/kernel/include/uapi/asm-generic/signal-defs.h"
	.file 53 "/cloud/jenkins/workspace/950_chipset_0425_component/opensource/component_code/vendor/huawei/extra/build/build_script/kirin_kernel_release/kernel/include/uapi/asm-generic/siginfo.h"
	.file 54 "/cloud/jenkins/workspace/950_chipset_0425_component/opensource/component_code/vendor/huawei/extra/build/build_script/kirin_kernel_release/kernel/include/linux/signal.h"
	.file 55 "/cloud/jenkins/workspace/950_chipset_0425_component/opensource/component_code/vendor/huawei/extra/build/build_script/kirin_kernel_release/kernel/include/linux/pid.h"
	.file 56 "/cloud/jenkins/workspace/950_chipset_0425_component/opensource/component_code/vendor/huawei/extra/build/build_script/kirin_kernel_release/kernel/include/linux/mmzone.h"
	.file 57 "/cloud/jenkins/workspace/950_chipset_0425_component/opensource/component_code/vendor/huawei/extra/build/build_script/kirin_kernel_release/kernel/include/linux/mutex.h"
	.file 58 "/cloud/jenkins/workspace/950_chipset_0425_component/opensource/component_code/vendor/huawei/extra/build/build_script/kirin_kernel_release/kernel/include/linux/notifier.h"
	.file 59 "/cloud/jenkins/workspace/950_chipset_0425_component/opensource/component_code/vendor/huawei/extra/build/build_script/kirin_kernel_release/kernel/include/linux/percpu_counter.h"
	.file 60 "/cloud/jenkins/workspace/950_chipset_0425_component/opensource/component_code/vendor/huawei/extra/build/build_script/kirin_kernel_release/kernel/include/linux/seccomp.h"
	.file 61 "/cloud/jenkins/workspace/950_chipset_0425_component/opensource/component_code/vendor/huawei/extra/build/build_script/kirin_kernel_release/kernel/include/uapi/linux/resource.h"
	.file 62 "/cloud/jenkins/workspace/950_chipset_0425_component/opensource/component_code/vendor/huawei/extra/build/build_script/kirin_kernel_release/kernel/include/linux/timerqueue.h"
	.file 63 "/cloud/jenkins/workspace/950_chipset_0425_component/opensource/component_code/vendor/huawei/extra/build/build_script/kirin_kernel_release/kernel/include/linux/hrtimer.h"
	.file 64 "/cloud/jenkins/workspace/950_chipset_0425_component/opensource/component_code/vendor/huawei/extra/build/build_script/kirin_kernel_release/kernel/include/linux/task_io_accounting.h"
	.file 65 "/cloud/jenkins/workspace/950_chipset_0425_component/opensource/component_code/vendor/huawei/extra/build/build_script/kirin_kernel_release/kernel/include/linux/assoc_array.h"
	.file 66 "/cloud/jenkins/workspace/950_chipset_0425_component/opensource/component_code/vendor/huawei/extra/build/build_script/kirin_kernel_release/kernel/include/linux/key.h"
	.file 67 "/cloud/jenkins/workspace/950_chipset_0425_component/opensource/component_code/vendor/huawei/extra/build/build_script/kirin_kernel_release/kernel/include/linux/cred.h"
	.file 68 "/cloud/jenkins/workspace/950_chipset_0425_component/opensource/component_code/vendor/huawei/extra/build/build_script/kirin_kernel_release/kernel/include/linux/idr.h"
	.file 69 "/cloud/jenkins/workspace/950_chipset_0425_component/opensource/component_code/vendor/huawei/extra/build/build_script/kirin_kernel_release/kernel/include/linux/percpu-refcount.h"
	.file 70 "/cloud/jenkins/workspace/950_chipset_0425_component/opensource/component_code/vendor/huawei/extra/build/build_script/kirin_kernel_release/kernel/include/linux/rcu_sync.h"
	.file 71 "/cloud/jenkins/workspace/950_chipset_0425_component/opensource/component_code/vendor/huawei/extra/build/build_script/kirin_kernel_release/kernel/include/linux/percpu-rwsem.h"
	.file 72 "/cloud/jenkins/workspace/950_chipset_0425_component/opensource/component_code/vendor/huawei/extra/build/build_script/kirin_kernel_release/kernel/include/linux/cgroup-defs.h"
	.file 73 "/cloud/jenkins/workspace/950_chipset_0425_component/opensource/component_code/vendor/huawei/extra/build/build_script/kirin_kernel_release/kernel/include/linux/kernfs.h"
	.file 74 "/cloud/jenkins/workspace/950_chipset_0425_component/opensource/component_code/vendor/huawei/extra/build/build_script/kirin_kernel_release/kernel/include/linux/seq_file.h"
	.file 75 "/cloud/jenkins/workspace/950_chipset_0425_component/opensource/component_code/vendor/huawei/extra/build/build_script/kirin_kernel_release/kernel/include/linux/bio.h"
	.file 76 "/cloud/jenkins/workspace/950_chipset_0425_component/opensource/component_code/vendor/huawei/extra/build/build_script/kirin_kernel_release/kernel/include/linux/backing-dev-defs.h"
	.file 77 "/cloud/jenkins/workspace/950_chipset_0425_component/opensource/component_code/vendor/huawei/extra/build/build_script/kirin_kernel_release/kernel/include/linux/iocontext.h"
	.file 78 "/cloud/jenkins/workspace/950_chipset_0425_component/opensource/component_code/vendor/huawei/extra/build/build_script/kirin_kernel_release/kernel/include/linux/compat.h"
	.file 79 "/cloud/jenkins/workspace/950_chipset_0425_component/opensource/component_code/vendor/huawei/extra/build/build_script/kirin_kernel_release/kernel/include/linux/stat.h"
	.file 80 "/cloud/jenkins/workspace/950_chipset_0425_component/opensource/component_code/vendor/huawei/extra/build/build_script/kirin_kernel_release/kernel/include/uapi/linux/elf.h"
	.file 81 "/cloud/jenkins/workspace/950_chipset_0425_component/opensource/component_code/vendor/huawei/extra/build/build_script/kirin_kernel_release/kernel/include/linux/kobject_ns.h"
	.file 82 "/cloud/jenkins/workspace/950_chipset_0425_component/opensource/component_code/vendor/huawei/extra/build/build_script/kirin_kernel_release/kernel/include/linux/sysfs.h"
	.file 83 "/cloud/jenkins/workspace/950_chipset_0425_component/opensource/component_code/vendor/huawei/extra/build/build_script/kirin_kernel_release/kernel/include/linux/kobject.h"
	.file 84 "/cloud/jenkins/workspace/950_chipset_0425_component/opensource/component_code/vendor/huawei/extra/build/build_script/kirin_kernel_release/kernel/include/linux/kref.h"
	.file 85 "/cloud/jenkins/workspace/950_chipset_0425_component/opensource/component_code/vendor/huawei/extra/build/build_script/kirin_kernel_release/kernel/include/linux/moduleparam.h"
	.file 86 "/cloud/jenkins/workspace/950_chipset_0425_component/opensource/component_code/vendor/huawei/extra/build/build_script/kirin_kernel_release/kernel/include/linux/module.h"
	.file 87 "/cloud/jenkins/workspace/950_chipset_0425_component/opensource/component_code/vendor/huawei/extra/build/build_script/kirin_kernel_release/kernel/include/linux/jump_label.h"
	.file 88 "/cloud/jenkins/workspace/950_chipset_0425_component/opensource/component_code/vendor/huawei/extra/build/build_script/kirin_kernel_release/kernel/include/linux/rbtree_latch.h"
	.file 89 "/cloud/jenkins/workspace/950_chipset_0425_component/opensource/component_code/vendor/huawei/extra/build/build_script/kirin_kernel_release/kernel/arch/arm64/include/asm/module.h"
	.file 90 "/cloud/jenkins/workspace/950_chipset_0425_component/opensource/component_code/vendor/huawei/extra/build/build_script/kirin_kernel_release/kernel/arch/arm64/include/asm/uaccess.h"
	.file 91 "/cloud/jenkins/workspace/950_chipset_0425_component/opensource/component_code/vendor/huawei/extra/build/build_script/kirin_kernel_release/kernel/include/linux/tracepoint.h"
	.file 92 "/cloud/jenkins/workspace/950_chipset_0425_component/opensource/component_code/vendor/huawei/extra/build/build_script/kirin_kernel_release/kernel/include/linux/list_bl.h"
	.file 93 "/cloud/jenkins/workspace/950_chipset_0425_component/opensource/component_code/vendor/huawei/extra/build/build_script/kirin_kernel_release/kernel/include/linux/lockref.h"
	.file 94 "/cloud/jenkins/workspace/950_chipset_0425_component/opensource/component_code/vendor/huawei/extra/build/build_script/kirin_kernel_release/kernel/include/linux/dcache.h"
	.file 95 "/cloud/jenkins/workspace/950_chipset_0425_component/opensource/component_code/vendor/huawei/extra/build/build_script/kirin_kernel_release/kernel/include/linux/path.h"
	.file 96 "/cloud/jenkins/workspace/950_chipset_0425_component/opensource/component_code/vendor/huawei/extra/build/build_script/kirin_kernel_release/kernel/include/linux/shrinker.h"
	.file 97 "/cloud/jenkins/workspace/950_chipset_0425_component/opensource/component_code/vendor/huawei/extra/build/build_script/kirin_kernel_release/kernel/include/linux/list_lru.h"
	.file 98 "/cloud/jenkins/workspace/950_chipset_0425_component/opensource/component_code/vendor/huawei/extra/build/build_script/kirin_kernel_release/kernel/include/linux/radix-tree.h"
	.file 99 "/cloud/jenkins/workspace/950_chipset_0425_component/opensource/component_code/vendor/huawei/extra/build/build_script/kirin_kernel_release/kernel/include/uapi/linux/fiemap.h"
	.file 100 "/cloud/jenkins/workspace/950_chipset_0425_component/opensource/component_code/vendor/huawei/extra/build/build_script/kirin_kernel_release/kernel/include/linux/migrate_mode.h"
	.file 101 "/cloud/jenkins/workspace/950_chipset_0425_component/opensource/component_code/vendor/huawei/extra/build/build_script/kirin_kernel_release/kernel/include/linux/blk_types.h"
	.file 102 "/cloud/jenkins/workspace/950_chipset_0425_component/opensource/component_code/vendor/huawei/extra/build/build_script/kirin_kernel_release/kernel/include/linux/quota.h"
	.file 103 "/cloud/jenkins/workspace/950_chipset_0425_component/opensource/component_code/vendor/huawei/extra/build/build_script/kirin_kernel_release/kernel/include/linux/projid.h"
	.file 104 "/cloud/jenkins/workspace/950_chipset_0425_component/opensource/component_code/vendor/huawei/extra/build/build_script/kirin_kernel_release/kernel/include/linux/uio.h"
	.file 105 "/cloud/jenkins/workspace/950_chipset_0425_component/opensource/component_code/vendor/huawei/extra/build/build_script/kirin_kernel_release/kernel/include/linux/genhd.h"
	.file 106 "/cloud/jenkins/workspace/950_chipset_0425_component/opensource/component_code/vendor/huawei/extra/build/build_script/kirin_kernel_release/kernel/include/linux/nfs_fs_i.h"
	.file 107 "/cloud/jenkins/workspace/950_chipset_0425_component/opensource/component_code/vendor/huawei/extra/build/build_script/kirin_kernel_release/kernel/include/linux/poll.h"
	.file 108 "/cloud/jenkins/workspace/950_chipset_0425_component/opensource/component_code/vendor/huawei/extra/build/build_script/kirin_kernel_release/kernel/include/linux/vmstat.h"
	.file 109 "/cloud/jenkins/workspace/950_chipset_0425_component/opensource/component_code/vendor/huawei/extra/build/build_script/kirin_kernel_release/kernel/include/linux/mempool.h"
	.file 110 "/cloud/jenkins/workspace/950_chipset_0425_component/opensource/component_code/vendor/huawei/extra/build/build_script/kirin_kernel_release/kernel/include/linux/klist.h"
	.file 111 "/cloud/jenkins/workspace/950_chipset_0425_component/opensource/component_code/vendor/huawei/extra/build/build_script/kirin_kernel_release/kernel/include/linux/pinctrl/devinfo.h"
	.file 112 "/cloud/jenkins/workspace/950_chipset_0425_component/opensource/component_code/vendor/huawei/extra/build/build_script/kirin_kernel_release/kernel/include/linux/pm.h"
	.file 113 "/cloud/jenkins/workspace/950_chipset_0425_component/opensource/component_code/vendor/huawei/extra/build/build_script/kirin_kernel_release/kernel/include/linux/device.h"
	.file 114 "/cloud/jenkins/workspace/950_chipset_0425_component/opensource/component_code/vendor/huawei/extra/build/build_script/kirin_kernel_release/kernel/include/linux/pm_wakeup.h"
	.file 115 "/cloud/jenkins/workspace/950_chipset_0425_component/opensource/component_code/vendor/huawei/extra/build/build_script/kirin_kernel_release/kernel/include/linux/ratelimit.h"
	.file 116 "/cloud/jenkins/workspace/950_chipset_0425_component/opensource/component_code/vendor/huawei/extra/build/build_script/kirin_kernel_release/kernel/arch/arm64/include/asm/device.h"
	.file 117 "/cloud/jenkins/workspace/950_chipset_0425_component/opensource/component_code/vendor/huawei/extra/build/build_script/kirin_kernel_release/kernel/include/linux/dma-mapping.h"
	.file 118 "/cloud/jenkins/workspace/950_chipset_0425_component/opensource/component_code/vendor/huawei/extra/build/build_script/kirin_kernel_release/kernel/include/linux/flex_proportions.h"
	.file 119 "/cloud/jenkins/workspace/950_chipset_0425_component/opensource/component_code/vendor/huawei/extra/build/build_script/kirin_kernel_release/kernel/include/linux/bsg.h"
	.file 120 "/cloud/jenkins/workspace/950_chipset_0425_component/opensource/component_code/vendor/huawei/extra/build/build_script/kirin_kernel_release/kernel/include/linux/wbt.h"
	.file 121 "/cloud/jenkins/workspace/950_chipset_0425_component/opensource/component_code/vendor/huawei/extra/build/build_script/kirin_kernel_release/kernel/include/linux/scatterlist.h"
	.file 122 "/cloud/jenkins/workspace/950_chipset_0425_component/opensource/component_code/vendor/huawei/extra/build/build_script/kirin_kernel_release/kernel/block/blk-mq.h"
	.file 123 "/cloud/jenkins/workspace/950_chipset_0425_component/opensource/component_code/vendor/huawei/extra/build/build_script/kirin_kernel_release/kernel/include/linux/elevator.h"
	.file 124 "/cloud/jenkins/workspace/950_chipset_0425_component/opensource/component_code/vendor/huawei/extra/build/build_script/kirin_kernel_release/kernel/include/linux/blk-mq.h"
	.file 125 "/cloud/jenkins/workspace/950_chipset_0425_component/opensource/component_code/vendor/huawei/extra/build/build_script/kirin_kernel_release/kernel/block/blk.h"
	.file 126 "/cloud/jenkins/workspace/950_chipset_0425_component/opensource/component_code/vendor/huawei/extra/build/build_script/kirin_kernel_release/kernel/include/uapi/linux/uio.h"
	.file 127 "/cloud/jenkins/workspace/950_chipset_0425_component/opensource/component_code/vendor/huawei/extra/build/build_script/kirin_kernel_release/kernel/include/linux/dma-attrs.h"
	.file 128 "/cloud/jenkins/workspace/950_chipset_0425_component/opensource/component_code/vendor/huawei/extra/build/build_script/kirin_kernel_release/kernel/include/linux/dma-direction.h"
	.file 129 "/cloud/jenkins/workspace/950_chipset_0425_component/opensource/component_code/vendor/huawei/extra/build/build_script/kirin_kernel_release/kernel/include/scsi/scsi_device.h"
	.file 130 "/cloud/jenkins/workspace/950_chipset_0425_component/opensource/component_code/vendor/huawei/extra/build/build_script/kirin_kernel_release/kernel/arch/arm64/include/asm/cachetype.h"
	.file 131 "/cloud/jenkins/workspace/950_chipset_0425_component/opensource/component_code/vendor/huawei/extra/build/build_script/kirin_kernel_release/kernel/include/linux/printk.h"
	.file 132 "/cloud/jenkins/workspace/950_chipset_0425_component/opensource/component_code/vendor/huawei/extra/build/build_script/kirin_kernel_release/kernel/include/linux/kernel.h"
	.file 133 "/cloud/jenkins/workspace/950_chipset_0425_component/opensource/component_code/vendor/huawei/extra/build/build_script/kirin_kernel_release/kernel/arch/arm64/include/asm/thread_info.h"
	.file 134 "/cloud/jenkins/workspace/950_chipset_0425_component/opensource/component_code/vendor/huawei/extra/build/build_script/kirin_kernel_release/kernel/arch/arm64/include/asm/hwcap.h"
	.file 135 "/cloud/jenkins/workspace/950_chipset_0425_component/opensource/component_code/vendor/huawei/extra/build/build_script/kirin_kernel_release/kernel/arch/arm64/include/asm/cpufeature.h"
	.file 136 "/cloud/jenkins/workspace/950_chipset_0425_component/opensource/component_code/vendor/huawei/extra/build/build_script/kirin_kernel_release/kernel/arch/arm64/include/asm/memory.h"
	.file 137 "/cloud/jenkins/workspace/950_chipset_0425_component/opensource/component_code/vendor/huawei/extra/build/build_script/kirin_kernel_release/kernel/include/linux/highuid.h"
	.file 138 "/cloud/jenkins/workspace/950_chipset_0425_component/opensource/component_code/vendor/huawei/extra/build/build_script/kirin_kernel_release/kernel/include/asm-generic/percpu.h"
	.file 139 "/cloud/jenkins/workspace/950_chipset_0425_component/opensource/component_code/vendor/huawei/extra/build/build_script/kirin_kernel_release/kernel/include/linux/debug_locks.h"
	.file 140 "/cloud/jenkins/workspace/950_chipset_0425_component/opensource/component_code/vendor/huawei/extra/build/build_script/kirin_kernel_release/kernel/include/asm-generic/pgtable.h"
	.file 141 "/cloud/jenkins/workspace/950_chipset_0425_component/opensource/component_code/vendor/huawei/extra/build/build_script/kirin_kernel_release/kernel/arch/arm64/include/asm/irq.h"
	.file 142 "/cloud/jenkins/workspace/950_chipset_0425_component/opensource/component_code/vendor/huawei/extra/build/build_script/kirin_kernel_release/kernel/arch/arm64/include/asm/hardirq.h"
	.file 143 "/cloud/jenkins/workspace/950_chipset_0425_component/opensource/component_code/vendor/huawei/extra/build/build_script/kirin_kernel_release/kernel/include/linux/slab.h"
	.file 144 "/cloud/jenkins/workspace/950_chipset_0425_component/opensource/component_code/vendor/huawei/extra/build/build_script/kirin_kernel_release/kernel/include/trace/events/block.h"
	.file 145 "/cloud/jenkins/workspace/950_chipset_0425_component/opensource/component_code/vendor/huawei/extra/build/build_script/kirin_kernel_release/kernel/arch/arm64/include/../../arm/include/asm/xen/hypervisor.h"
	.file 146 "/cloud/jenkins/workspace/950_chipset_0425_component/opensource/component_code/vendor/huawei/extra/build/build_script/kirin_kernel_release/kernel/arch/arm64/include/asm/dma-mapping.h"
	.file 147 "/cloud/jenkins/workspace/950_chipset_0425_component/opensource/component_code/vendor/huawei/extra/build/build_script/kirin_kernel_release/kernel/include/scsi/scsi_common.h"
	.file 148 "/cloud/jenkins/workspace/950_chipset_0425_component/opensource/component_code/vendor/huawei/extra/build/build_script/kirin_kernel_release/kernel/include/linux/timekeeping.h"
	.section	.note.GNU-stack,"",%progbits
