	.cpu generic+fp+simd
	.file	"nf_hw_hook.c"
	.text
.Ltext0:
	.cfi_sections	.debug_frame
#APP
	.irp	num,0,1,2,3,4,5,6,7,8,9,10,11,12,13,14,15,16,17,18,19,20,21,22,23,24,25,26,27,28,29,30
	.equ	.L__reg_num_x\num, \num
	.endr
	.equ	.L__reg_num_xzr, 31

	.macro	mrs_s, rt, sreg
	.inst	0xd5200000|(\sreg)|(.L__reg_num_\rt)
	.endm

	.macro	msr_s, sreg, rt
	.inst	0xd5000000|(\sreg)|(.L__reg_num_\rt)
	.endm

#NO_APP
	.section	.exit.text,"ax",%progbits
	.align	2
	.type	nf_exit, %function
nf_exit:
.LFB3514:
	.file 1 "/cloud/jenkins/workspace/950_chipset_0425_component/opensource/component_code/vendor/huawei/extra/build/build_script/kirin_kernel_release/kernel/drivers/huawei_platform/net/hw_netfilter/nf_hw_hook.c"
	.loc 1 408 0
	.cfi_startproc
	stp	x29, x30, [sp, -16]!
	.cfi_def_cfa_offset 16
	.cfi_offset 29, -16
	.cfi_offset 30, -8
	add	x29, sp, 0
	.cfi_def_cfa_register 29
	.loc 1 409 0
	bl	uninit_ad
.LVL0:
	.loc 1 410 0
	bl	uninit_appdl
.LVL1:
	.loc 1 411 0
	adrp	x0, .LANCHOR0
	mov	w1, 1
	add	x0, x0, :lo12:.LANCHOR0
	bl	nf_unregister_hooks
.LVL2:
	.loc 1 412 0
	ldp	x29, x30, [sp], 16
	.cfi_restore 30
	.cfi_restore 29
	.cfi_def_cfa 31, 0
	ret
	.cfi_endproc
.LFE3514:
	.size	nf_exit, .-nf_exit
	.section	.init.text,"ax",%progbits
	.align	2
	.type	nf_init, %function
nf_init:
.LFB3513:
	.loc 1 391 0
	.cfi_startproc
	stp	x29, x30, [sp, -96]!
	.cfi_def_cfa_offset 96
	.cfi_offset 29, -96
	.cfi_offset 30, -88
	adrp	x0, __stack_chk_guard
	add	x29, sp, 0
	.cfi_def_cfa_register 29
	stp	x19, x20, [sp,16]
	.cfi_offset 19, -80
	.cfi_offset 20, -72
	mov	x20, x0
	.loc 1 391 0
	ldr	x0, [x0,#:lo12:__stack_chk_guard]
	str	x0, [x29,88]
	.loc 1 394 0
	bl	init_appdl
.LVL3:
	.loc 1 395 0
	bl	init_ad
.LVL4:
	.loc 1 396 0
	adrp	x0, .LANCHOR0
	mov	w1, 1
	add	x0, x0, :lo12:.LANCHOR0
	bl	nf_register_hooks
.LVL5:
	.loc 1 397 0
	cbz	w0, .L3
	.loc 1 398 0
	mov	w1, w0
	adrp	x0, .LC0
.LVL6:
	add	x0, x0, :lo12:.LC0
	bl	printk
.LVL7:
	.loc 1 399 0
	mov	w0, -1
	b	.L4
.LVL8:
.L3:
.LBB133:
.LBB134:
	.loc 1 190 0
	add	x4, x29, 40
.LBB135:
.LBB136:
	.file 2 "/cloud/jenkins/workspace/950_chipset_0425_component/opensource/component_code/vendor/huawei/extra/build/build_script/kirin_kernel_release/kernel/include/linux/netlink.h"
	.loc 2 62 0
	adrp	x0, init_net
.LVL9:
	mov	x3, x4
	mov	w1, 32
	add	x0, x0, :lo12:init_net
	mov	x2, 0
.LBE136:
.LBE135:
	.loc 1 190 0
	stp	xzr, xzr, [x4]
	stp	xzr, xzr, [x4,16]
	stp	xzr, xzr, [x4,32]
	adrp	x4, kernel_hw_receive
	add	x4, x4, :lo12:kernel_hw_receive
	str	x4, [x29,48]
.LBB138:
.LBB137:
	.loc 2 62 0
	bl	__netlink_kernel_create
.LVL10:
.LBE137:
.LBE138:
	.loc 1 193 0
	adrp	x1, .LANCHOR1
	mov	x19, x1
	str	x0, [x1,#:lo12:.LANCHOR1]
	.loc 1 194 0
	cbnz	x0, .L5
	.loc 1 195 0
	adrp	x0, .LC1
	add	x0, x0, :lo12:.LC1
	bl	printk
.LVL11:
.L5:
.LBE134:
.LBE133:
	.loc 1 402 0
	add	x1, x19, :lo12:.LANCHOR1
	.loc 1 403 0
	adrp	x0, .LC2
	add	x0, x0, :lo12:.LC2
	.loc 1 402 0
	strh	wzr, [x1,8]
	strh	wzr, [x1,10]
	.loc 1 403 0
	bl	printk
.LVL12:
	.loc 1 404 0
	mov	w0, 0
.L4:
	.loc 1 405 0
	ldr	x2, [x29,88]
	ldr	x1, [x20,#:lo12:__stack_chk_guard]
	cmp	x2, x1
	beq	.L6
	bl	__stack_chk_fail
.LVL13:
.L6:
	ldp	x19, x20, [sp,16]
	.cfi_restore 20
	.cfi_restore 19
	ldp	x29, x30, [sp], 96
	.cfi_restore 30
	.cfi_restore 29
	.cfi_def_cfa 31, 0
	ret
	.cfi_endproc
.LFE3513:
	.size	nf_init, .-nf_init
	.text
	.align	2
	.type	notify_event.constprop.6, %function
notify_event.constprop.6:
.LFB3521:
	.loc 1 148 0
	.cfi_startproc
.LVL14:
	stp	x29, x30, [sp, -80]!
	.cfi_def_cfa_offset 80
	.cfi_offset 29, -80
	.cfi_offset 30, -72
	add	x29, sp, 0
	.cfi_def_cfa_register 29
	stp	x23, x24, [sp,48]
	.cfi_offset 23, -32
	.cfi_offset 24, -24
	mov	w24, w0
	.loc 1 155 0
	mov	x0, x1
.LVL15:
	.loc 1 148 0
	stp	x25, x26, [sp,64]
	stp	x19, x20, [sp,16]
	stp	x21, x22, [sp,32]
	.cfi_offset 25, -16
	.cfi_offset 26, -8
	.cfi_offset 19, -64
	.cfi_offset 20, -56
	.cfi_offset 21, -48
	.cfi_offset 22, -40
	.loc 1 148 0
	mov	x25, x1
	.loc 1 155 0
	bl	strlen
.LVL16:
	mov	x23, x0
	.loc 1 157 0
	cbz	w24, .L9
	.loc 1 157 0 is_stmt 0 discriminator 1
	adrp	x21, .LANCHOR1
	add	x0, x21, :lo12:.LANCHOR1
	ldr	x1, [x21,#:lo12:.LANCHOR1]
	cbz	x1, .L9
	.loc 1 157 0 discriminator 2
	ldr	w0, [x0,12]
	cbz	w0, .L9
.LBB139:
.LBB140:
.LBB141:
.LBB142:
	.file 3 "/cloud/jenkins/workspace/950_chipset_0425_component/opensource/component_code/vendor/huawei/extra/build/build_script/kirin_kernel_release/kernel/include/net/netlink.h"
	.loc 3 276 0 is_stmt 1
	add	w19, w23, 28
.LBE142:
.LBE141:
.LBB144:
.LBB145:
	.file 4 "/cloud/jenkins/workspace/950_chipset_0425_component/opensource/component_code/vendor/huawei/extra/build/build_script/kirin_kernel_release/kernel/include/linux/skbuff.h"
	.loc 4 815 0
	mov	w1, 32
.LBE145:
.LBE144:
.LBB148:
.LBB143:
	.loc 3 276 0
	and	w19, w19, -4
.LBE143:
.LBE148:
.LBB149:
.LBB146:
	.loc 4 815 0
	movk	w1, 0x208, lsl 16
	mov	w0, w19
	mov	w2, 0
	mov	w3, -1
.LBE146:
.LBE149:
.LBE140:
.LBE139:
	.loc 1 162 0
	add	w26, w23, 9
.LVL17:
.LBB152:
.LBB151:
.LBB150:
.LBB147:
	.loc 4 815 0
	bl	__alloc_skb
.LVL18:
	mov	x20, x0
.LBE147:
.LBE150:
.LBE151:
.LBE152:
	.loc 1 164 0
	cbz	x0, .L26
.LBB153:
.LBB154:
.LBB155:
.LBB156:
	.loc 4 1877 0
	ldr	w1, [x0,124]
	.loc 4 1877 0 is_stmt 0 discriminator 1
	mov	w0, 0
	.loc 4 1877 0
	cbz	w1, .L27
.L13:
.LBE156:
.LBE155:
	.loc 3 449 0 is_stmt 1
	cmp	w19, w0
	bgt	.L15
	.loc 3 452 0
	mov	x0, x20
	mov	w1, 0
	mov	w2, 0
	mov	w3, 0
	mov	w4, w26
	mov	w5, 0
	bl	__nlmsg_put
.LVL19:
	mov	x22, x0
.LBE154:
.LBE153:
	.loc 1 170 0
	cbz	x0, .L15
	.loc 1 178 0
	mov	w1, 0
	sxtw	x2, w26
	add	x0, x0, 16
.LBB160:
.LBB161:
	.file 5 "/cloud/jenkins/workspace/950_chipset_0425_component/opensource/component_code/vendor/huawei/extra/build/build_script/kirin_kernel_release/kernel/include/linux/spinlock.h"
	.loc 5 307 0
	add	x19, x21, :lo12:.LANCHOR1
	add	x19, x19, 8
.LBE161:
.LBE160:
	.loc 1 178 0
	bl	memset
.LVL20:
	.loc 1 179 0
	sxtw	x2, w23
	mov	x1, x25
	add	x0, x22, 20
	bl	memcpy
.LVL21:
	.loc 1 180 0
	mov	w1, 1000
.LBB164:
.LBB162:
	.loc 5 307 0
	mov	x0, x19
.LBE162:
.LBE164:
	.loc 1 180 0
	str	w1, [x22,16]
.LBB165:
.LBB163:
	.loc 5 307 0
	bl	_raw_spin_lock_bh
.LVL22:
.LBE163:
.LBE165:
	.loc 1 182 0
	ldr	x0, [x21,#:lo12:.LANCHOR1]
	mov	x1, x20
	mov	w2, w24
	mov	w3, 64
	bl	netlink_unicast
.LVL23:
	mov	w21, w0
.LVL24:
.LBB166:
.LBB167:
	.loc 5 352 0
	mov	x0, x19
	bl	_raw_spin_unlock_bh
.LVL25:
.L11:
.LBE167:
.LBE166:
	.loc 1 186 0
	mov	w0, w21
	ldp	x19, x20, [sp,16]
	.cfi_remember_state
	.cfi_restore 20
	.cfi_restore 19
	ldp	x21, x22, [sp,32]
	.cfi_restore 22
	.cfi_restore 21
.LVL26:
	ldp	x23, x24, [sp,48]
	.cfi_restore 24
	.cfi_restore 23
.LVL27:
	ldp	x25, x26, [sp,64]
	.cfi_restore 26
	.cfi_restore 25
.LVL28:
	ldp	x29, x30, [sp], 80
	.cfi_restore 30
	.cfi_restore 29
	.cfi_def_cfa 31, 0
	ret
.LVL29:
.L27:
	.cfi_restore_state
.LBB168:
.LBB159:
.LBB158:
.LBB157:
	.loc 4 1877 0 discriminator 2
	ldr	w0, [x20,196]
	ldr	w1, [x20,192]
	sub	w0, w0, w1
	b	.L13
.L15:
.LBE157:
.LBE158:
.LBE159:
.LBE168:
	.loc 1 171 0
	adrp	x0, .LC5
	.loc 1 174 0
	mov	w21, -1
.LVL30:
	.loc 1 171 0
	add	x0, x0, :lo12:.LC5
	bl	printk
.LVL31:
	.loc 1 172 0
	mov	x0, x20
	bl	kfree_skb
.LVL32:
	b	.L11
.LVL33:
.L9:
	.loc 1 158 0
	adrp	x0, .LC3
	.loc 1 159 0
	mov	w21, -1
.LVL34:
	.loc 1 158 0
	add	x0, x0, :lo12:.LC3
	bl	printk
.LVL35:
	b	.L11
.LVL36:
.L26:
	.loc 1 165 0
	adrp	x0, .LC4
	.loc 1 166 0
	mov	w21, -1
.LVL37:
	.loc 1 165 0
	add	x0, x0, :lo12:.LC4
	bl	printk
.LVL38:
	b	.L11
	.cfi_endproc
.LFE3521:
	.size	notify_event.constprop.6, .-notify_event.constprop.6
	.align	2
	.global	proc_cmd
	.type	proc_cmd, %function
proc_cmd:
.LFB3504:
	.loc 1 67 0
	.cfi_startproc
.LVL39:
	stp	x29, x30, [sp, -16]!
	.cfi_def_cfa_offset 16
	.cfi_offset 29, -16
	.cfi_offset 30, -8
	.loc 1 68 0
	cmp	w0, 3
	.loc 1 67 0
	add	x29, sp, 0
	.cfi_def_cfa_register 29
	.loc 1 68 0
	beq	.L37
	.loc 1 70 0
	cmp	w0, 5
	beq	.L38
	.loc 1 72 0
	cmp	w0, 7
	beq	.L39
	.loc 1 74 0
	cmp	w0, 4
	beq	.L40
	.loc 1 76 0
	cmp	w0, 6
	beq	.L41
	.loc 1 78 0
	cmp	w0, 8
	beq	.L42
.LBB171:
.LBB172:
	.loc 1 80 0
	cmp	w0, 9
	bne	.L36
	.loc 1 81 0
	mov	w0, w1
.LVL40:
	mov	x1, x2
.LVL41:
	bl	download_notify
.LVL42:
.L28:
.LBE172:
.LBE171:
	.loc 1 84 0
	ldp	x29, x30, [sp], 16
	.cfi_remember_state
	.cfi_restore 30
	.cfi_restore 29
	.cfi_def_cfa 31, 0
	ret
.LVL43:
.L37:
	.cfi_restore_state
	.loc 1 69 0
	cmp	w1, wzr
	mov	x0, x2
.LVL44:
	cset	w1, ne
.LVL45:
	bl	add_ad_rule
.LVL46:
	b	.L28
.LVL47:
.L38:
	.loc 1 71 0
	mov	w0, w1
.LVL48:
	mov	x1, x2
.LVL49:
	bl	clear_ad_rule
.LVL50:
	b	.L28
.LVL51:
.L39:
	.loc 1 73 0
	bl	output_ad_rule
.LVL52:
	b	.L28
.LVL53:
.L40:
	.loc 1 75 0
	cmp	w1, wzr
	mov	x0, x2
.LVL54:
	cset	w1, ne
.LVL55:
	bl	add_appdl_rule
.LVL56:
	b	.L28
.LVL57:
.L41:
	.loc 1 77 0
	mov	w0, w1
.LVL58:
	mov	x1, x2
.LVL59:
	bl	clear_appdl_rule
.LVL60:
	b	.L28
.LVL61:
.L42:
	.loc 1 79 0
	bl	output_appdl_rule
.LVL62:
	b	.L28
.LVL63:
.L36:
.LBB174:
.LBB173:
	.loc 1 83 0
	mov	w1, w0
.LVL64:
	adrp	x0, .LC6
.LVL65:
	add	x0, x0, :lo12:.LC6
	bl	printk
.LVL66:
	b	.L28
.LBE173:
.LBE174:
	.cfi_endproc
.LFE3504:
	.size	proc_cmd, .-proc_cmd
	.align	2
	.type	kernel_hw_receive, %function
kernel_hw_receive:
.LFB3506:
	.loc 1 106 0
	.cfi_startproc
.LVL67:
	stp	x29, x30, [sp, -32]!
	.cfi_def_cfa_offset 32
	.cfi_offset 29, -32
	.cfi_offset 30, -24
	add	x29, sp, 0
	.cfi_def_cfa_register 29
	str	x19, [sp,16]
	.cfi_offset 19, -16
	.loc 1 106 0
	mov	x19, x0
	.loc 1 111 0
	cbz	x0, .L56
.LBB175:
.LBB176:
.LBB177:
.LBB178:
	.file 6 "/cloud/jenkins/workspace/950_chipset_0425_component/opensource/component_code/vendor/huawei/extra/build/build_script/kirin_kernel_release/kernel/arch/arm64/include/asm/atomic_ll_sc.h"
	.loc 6 90 0
	add	x2, x0, 220
#APP
// 90 "/cloud/jenkins/workspace/950_chipset_0425_component/opensource/component_code/vendor/huawei/extra/build/build_script/kirin_kernel_release/kernel/arch/arm64/include/asm/atomic_ll_sc.h" 1
	// atomic_add
	prfm	pstl1strm, [x2]
1:	ldxr	w0, [x2]
	add	w0, w0, 1
	stxr	w1, w0, [x2]
	cbnz	w1, 1b
// 0 "" 2
.LVL68:
#NO_APP
.LBE178:
.LBE177:
.LBE176:
.LBE175:
	.loc 1 120 0
	ldr	w0, [x19,120]
.LVL69:
	cmp	w0, 15
	bls	.L46
	ldr	x1, [x19,208]
.LVL70:
	.loc 1 122 0
	cbz	x1, .L57
	.loc 1 127 0
	ldr	w2, [x1]
	.loc 1 127 0 is_stmt 0 discriminator 1
	cmp	w2, 15
	bls	.L46
	cmp	w0, w2
	bcc	.L46
	.loc 1 129 0 is_stmt 1
	ldrh	w0, [x1,4]
	cbnz	w0, .L48
	.loc 1 130 0
	adrp	x0, .LANCHOR1+12
	ldr	w1, [x1,12]
	str	w1, [x0,#:lo12:.LANCHOR1+12]
.LVL71:
.L46:
	.loc 1 144 0
	mov	x0, x19
	bl	kfree_skb
.LVL72:
.L43:
	.loc 1 145 0
	ldr	x19, [sp,16]
	.cfi_remember_state
	.cfi_restore 19
.LVL73:
	ldp	x29, x30, [sp], 32
	.cfi_restore 30
	.cfi_restore 29
	.cfi_def_cfa 31, 0
	ret
.LVL74:
.L48:
	.cfi_restore_state
	.loc 1 131 0
	cmp	w0, 1
	beq	.L58
.LBB179:
.LBB180:
	.loc 1 98 0
	subs	w3, w2, #21
.LVL75:
	bmi	.L46
.LBE180:
.LBE179:
	.loc 1 135 0
	add	x0, x1, 20
.LVL76:
	.loc 1 140 0
	mov	x2, x0
.LBB182:
.LBB181:
	.loc 1 101 0
	strb	wzr, [x0,w3,sxtw]
.LBE181:
.LBE182:
	.loc 1 140 0
	ldrh	w0, [x1,4]
.LVL77:
	ldr	w1, [x1,16]
	bl	proc_cmd
.LVL78:
	b	.L46
.L58:
	.loc 1 132 0
	adrp	x0, .LANCHOR1+12
	str	wzr, [x0,#:lo12:.LANCHOR1+12]
	b	.L46
.LVL79:
.L56:
	.loc 1 112 0
	adrp	x0, .LC7
.LVL80:
	add	x0, x0, :lo12:.LC7
	bl	printk
.LVL81:
	.loc 1 113 0
	b	.L43
.L57:
	.loc 1 123 0
	adrp	x0, .LC8
	add	x0, x0, :lo12:.LC8
	bl	printk
.LVL82:
	.loc 1 124 0
	mov	x0, x19
	bl	kfree_skb
.LVL83:
	.loc 1 125 0
	b	.L43
	.cfi_endproc
.LFE3506:
	.size	kernel_hw_receive, .-kernel_hw_receive
	.align	2
	.global	check_str
	.type	check_str, %function
check_str:
.LFB3505:
	.loc 1 87 0
	.cfi_startproc
.LVL84:
	.loc 1 93 0
	add	x1, x0, 20
.LVL85:
	.loc 1 96 0
	ldr	w0, [x0]
.LVL86:
	.loc 1 98 0
	subs	w0, w0, #21
.LVL87:
	bmi	.L61
	.loc 1 101 0
	strb	wzr, [x1,w0,sxtw]
	.loc 1 102 0
	mov	w0, 0
.LVL88:
	.loc 1 103 0
	ret
.LVL89:
.L61:
	.loc 1 99 0
	mov	w0, 1
.LVL90:
	.loc 1 103 0
	ret
	.cfi_endproc
.LFE3505:
	.size	check_str, .-check_str
	.align	2
	.global	download_app_pro
	.type	download_app_pro, %function
download_app_pro:
.LFB3510:
	.loc 1 210 0
	.cfi_startproc
.LVL91:
	stp	x29, x30, [sp, -80]!
	.cfi_def_cfa_offset 80
	.cfi_offset 29, -80
	.cfi_offset 30, -72
	add	x29, sp, 0
	.cfi_def_cfa_register 29
	stp	x21, x22, [sp,32]
	stp	x23, x24, [sp,48]
	.cfi_offset 21, -48
	.cfi_offset 22, -40
	.cfi_offset 23, -32
	.cfi_offset 24, -24
	mov	x21, x0
	mov	w24, w1
	.loc 1 211 0
	mov	x0, x2
.LVL92:
	mov	w1, w3
.LVL93:
	.loc 1 210 0
	stp	x19, x20, [sp,16]
	str	x25, [sp,64]
	.cfi_offset 19, -64
	.cfi_offset 20, -56
	.cfi_offset 25, -16
	.loc 1 210 0
	mov	x23, x2
	mov	w22, w3
	mov	x25, x4
	.loc 1 211 0
	bl	get_url_path
.LVL94:
	mov	x19, x0
.LVL95:
	.loc 1 219 0
	cbz	x0, .L85
	.loc 1 221 0
	mov	x0, x21
	bl	get_select
.LVL96:
	mov	w20, w0
.LVL97:
	.loc 1 222 0
	cbz	w0, .L69
	.loc 1 223 0
	mov	x0, x19
	bl	kfree
.LVL98:
	.loc 1 224 0
	cmp	w20, 3
	beq	.L76
	.loc 1 226 0
	cmp	w20, 2
	beq	.L85
	.loc 1 228 0
	cmp	w20, 1
	beq	.L70
.L69:
	.loc 1 231 0
	mov	x0, x21
	mov	w1, w24
	mov	x2, x19
	bl	get_download_monitor
.LVL99:
	mov	x21, x0
.LVL100:
	.loc 1 232 0
	mov	x0, x19
	bl	kfree
.LVL101:
	.loc 1 233 0
	cbz	x21, .L87
	.loc 1 237 0
	ldrb	w0, [x21,72]
	cbz	w0, .L88
.LVL102:
.L70:
	.loc 1 229 0
	mov	w0, -1
.L64:
	.loc 1 268 0
	ldp	x19, x20, [sp,16]
	.cfi_remember_state
	.cfi_restore 20
	.cfi_restore 19
.LVL103:
	ldp	x21, x22, [sp,32]
	.cfi_restore 22
	.cfi_restore 21
.LVL104:
	ldp	x23, x24, [sp,48]
	.cfi_restore 24
	.cfi_restore 23
.LVL105:
	ldr	x25, [sp,64]
	.cfi_restore 25
.LVL106:
	ldp	x29, x30, [sp], 80
	.cfi_restore 30
	.cfi_restore 29
	.cfi_def_cfa 31, 0
	ret
.LVL107:
.L84:
	.cfi_restore_state
	.loc 1 253 0
	mov	x0, x21
	bl	free_node
.LVL108:
.L85:
	.loc 1 254 0
	mov	w0, 1
	.loc 1 268 0
	ldr	x25, [sp,64]
	.cfi_remember_state
	.cfi_restore 25
.LVL109:
	ldp	x19, x20, [sp,16]
	.cfi_restore 19
	.cfi_restore 20
.LVL110:
	ldp	x21, x22, [sp,32]
	.cfi_restore 21
	.cfi_restore 22
.LVL111:
	ldp	x23, x24, [sp,48]
	.cfi_restore 23
	.cfi_restore 24
.LVL112:
	ldp	x29, x30, [sp], 80
	.cfi_restore 29
	.cfi_restore 30
	.cfi_def_cfa 31, 0
	ret
.LVL113:
.L88:
	.cfi_restore_state
	.loc 1 239 0
	mov	x0, x23
	mov	w1, w22
	bl	get_url_form_data
.LVL114:
	mov	x19, x0
.LVL115:
	.loc 1 240 0
	cbz	x0, .L84
	.loc 1 244 0
	ldr	w0, [x21,80]
	mov	w1, w24
	mov	x2, x19
	mov	x3, x25
	bl	get_report_msg
.LVL116:
	mov	x22, x0
.LVL117:
	.loc 1 245 0
	mov	x0, x19
	bl	kfree
.LVL118:
	.loc 1 246 0
	cbz	x22, .L84
	.loc 1 250 0
	adrp	x0, .LANCHOR1+12
	mov	x1, x22
	ldr	w0, [x0,#:lo12:.LANCHOR1+12]
	bl	notify_event.constprop.6
.LVL119:
	mov	w19, w0
.LVL120:
	.loc 1 251 0
	mov	x0, x22
	bl	kfree
.LVL121:
	.loc 1 252 0
	tbnz	w19, #31, .L84
.LBB183:
.LBB184:
.LBB185:
.LBB186:
	.file 7 "/cloud/jenkins/workspace/950_chipset_0425_component/opensource/component_code/vendor/huawei/extra/build/build_script/kirin_kernel_release/kernel/arch/arm64/include/asm/thread_info.h"
	.loc 7 97 0
#APP
// 97 "/cloud/jenkins/workspace/950_chipset_0425_component/opensource/component_code/vendor/huawei/extra/build/build_script/kirin_kernel_release/kernel/arch/arm64/include/asm/thread_info.h" 1
	mrs x0, sp_el0
// 0 "" 2
.LVL122:
#NO_APP
.LBE186:
.LBE185:
.LBB187:
.LBB188:
	.file 8 "/cloud/jenkins/workspace/950_chipset_0425_component/opensource/component_code/vendor/huawei/extra/build/build_script/kirin_kernel_release/kernel/include/linux/compiler.h"
	.loc 8 218 0 discriminator 4
	ldr	w1, [x0,24]
.LBE188:
.LBE187:
.LBE184:
.LBE183:
	.loc 1 256 0
	tst	w1, 983040
	bne	.L74
.LBB189:
.LBB190:
.LBB191:
.LBB192:
	.loc 8 218 0 discriminator 4
	ldr	w0, [x0,24]
.LVL123:
.LBE192:
.LBE191:
.LBE190:
.LBE189:
	.loc 1 256 0 discriminator 1
	tst	w0, 2096896
	bne	.L74
	.loc 1 257 0
	mov	x0, x21
	bl	wait_user_event
.LVL124:
	mov	w20, w0
	.loc 1 262 0
	cbz	w20, .L70
.L89:
	.loc 1 263 0
	cmp	w20, 2
	cset	w0, eq
	b	.L64
.LVL125:
.L76:
	.loc 1 225 0
	mov	w0, 0
	b	.L64
.LVL126:
.L87:
	.loc 1 234 0
	adrp	x0, .LC9
	add	x0, x0, :lo12:.LC9
	bl	printk
.LVL127:
	.loc 1 235 0
	mov	w0, 1
	b	.L64
.LVL128:
.L74:
.LBB193:
.LBB194:
.LBB195:
.LBB196:
	.loc 7 97 0
#APP
// 97 "/cloud/jenkins/workspace/950_chipset_0425_component/opensource/component_code/vendor/huawei/extra/build/build_script/kirin_kernel_release/kernel/arch/arm64/include/asm/thread_info.h" 1
	mrs x0, sp_el0
// 0 "" 2
.LVL129:
#NO_APP
.LBE196:
.LBE195:
.LBB197:
.LBB198:
	.loc 8 218 0 discriminator 4
	ldr	w1, [x0,24]
.LBE198:
.LBE197:
.LBE194:
.LBE193:
.LBB199:
.LBB200:
.LBB201:
.LBB202:
	ldr	w2, [x0,24]
.LBE202:
.LBE201:
.LBE200:
.LBE199:
	.loc 1 259 0 discriminator 2
	adrp	x0, .LC10
.LVL130:
	add	x0, x0, :lo12:.LC10
	and	w1, w1, 983040
	and	w2, w2, 2096896
	bl	printk
.LVL131:
	.loc 1 262 0
	cbz	w20, .L70
	b	.L89
	.cfi_endproc
.LFE3510:
	.size	download_app_pro, .-download_app_pro
	.align	2
	.global	hw_match_httppack
	.type	hw_match_httppack, %function
hw_match_httppack:
.LFB3511:
	.loc 1 272 0
	.cfi_startproc
.LVL132:
	stp	x29, x30, [sp, -64]!
	.cfi_def_cfa_offset 64
	.cfi_offset 29, -64
	.cfi_offset 30, -56
	add	x29, sp, 0
	.cfi_def_cfa_register 29
	stp	x23, x24, [sp,48]
	.cfi_offset 23, -16
	.cfi_offset 24, -8
	mov	x23, x0
	.loc 1 277 0
	mov	w0, w1
.LVL133:
	.loc 1 272 0
	stp	x19, x20, [sp,16]
	stp	x21, x22, [sp,32]
	.cfi_offset 19, -48
	.cfi_offset 20, -40
	.cfi_offset 21, -32
	.cfi_offset 22, -24
	.loc 1 272 0
	mov	w19, w1
	mov	x21, x2
	mov	w22, w3
	mov	x20, x4
	.loc 1 277 0
	bl	match_appdl_uid
.LVL134:
	uxtb	w0, w0
	cbnz	w0, .L122
.L91:
	.loc 1 283 0 discriminator 1
	mov	w0, w19
	bl	match_ad_uid
.LVL135:
	uxtb	w0, w0
	cbnz	w0, .L123
.L93:
	.loc 1 272 0
	mov	w20, 1
.LVL136:
.L120:
	.loc 1 311 0
	cmn	w19, #1
	beq	.L102
.L109:
	.loc 1 324 0
	mov	w0, w20
	ldp	x19, x20, [sp,16]
	.cfi_remember_state
	.cfi_restore 20
	.cfi_restore 19
.LVL137:
	ldp	x21, x22, [sp,32]
	.cfi_restore 22
	.cfi_restore 21
.LVL138:
	ldp	x23, x24, [sp,48]
	.cfi_restore 24
	.cfi_restore 23
.LVL139:
	ldp	x29, x30, [sp], 64
	.cfi_restore 30
	.cfi_restore 29
	.cfi_def_cfa 31, 0
	ret
.LVL140:
.L122:
	.cfi_restore_state
	.loc 1 278 0
	mov	x0, x21
	mov	w1, w22
	bl	match_appdl_url
.LVL141:
	uxtb	w0, w0
	cbz	w0, .L91
	.loc 1 280 0
	mov	x4, x20
	mov	x0, x23
	mov	w1, w19
	mov	x2, x21
	mov	w3, w22
	bl	download_app_pro
.LVL142:
	mov	w20, w0
.LVL143:
	.loc 1 311 0
	cbnz	w0, .L120
.LVL144:
.L102:
	.loc 1 312 0
	mov	x0, x21
	mov	w1, w22
	bl	get_url_path
.LVL145:
	mov	x19, x0
.LVL146:
	.loc 1 313 0
	cbz	x0, .L109
	.loc 1 315 0
	bl	strlen
.LVL147:
	mov	x1, x0
	.loc 1 315 0 is_stmt 0 discriminator 1
	mov	x0, x19
	bl	is_droplist
.LVL148:
	uxtb	w0, w0
	.loc 1 315 0
	cbnz	w0, .L103
	.loc 1 318 0 is_stmt 1
	cbz	w20, .L124
.L100:
	.loc 1 321 0
	mov	x0, x19
	bl	kfree
.LVL149:
	.loc 1 324 0
	mov	w0, w20
	ldp	x19, x20, [sp,16]
	.cfi_remember_state
	.cfi_restore 19
	.cfi_restore 20
.LVL150:
	ldp	x21, x22, [sp,32]
	.cfi_restore 21
	.cfi_restore 22
.LVL151:
	ldp	x23, x24, [sp,48]
	.cfi_restore 23
	.cfi_restore 24
.LVL152:
	ldp	x29, x30, [sp], 64
	.cfi_restore 29
	.cfi_restore 30
	.cfi_def_cfa 31, 0
	ret
.LVL153:
.L123:
	.cfi_restore_state
	.loc 1 284 0
	mov	w0, w19
	mov	x1, x21
	mov	w2, w22
	bl	match_ad_url
.LVL154:
	uxtb	w0, w0
	cbz	w0, .L93
.LBB203:
	.loc 1 289 0
	adrp	x23, .LANCHOR1
.LVL155:
	bl	get_cur_time
.LVL156:
	add	x23, x23, :lo12:.LANCHOR1
	ldr	x1, [x23,16]
	sub	x0, x0, x1
	cmp	x0, 1000
	bhi	.L125
.LBE203:
	.loc 1 272 0
	mov	w20, 0
.LVL157:
	b	.L102
.LVL158:
.L103:
	.loc 1 316 0
	mov	w20, 0
	b	.L100
.LVL159:
.L125:
.LBB204:
	.loc 1 290 0
	bl	get_cur_time
.LVL160:
	str	x0, [x23,16]
	.loc 1 292 0
	mov	w1, w22
	mov	x0, x21
	bl	get_url_form_data
.LVL161:
	mov	x24, x0
	.loc 1 293 0
	cbz	x0, .L126
	.loc 1 297 0
	mov	w1, w19
	mov	w0, 100
	mov	x2, x24
	mov	x3, x20
	bl	get_report_msg
.LVL162:
	mov	x19, x0
.LVL163:
	.loc 1 298 0
	cbz	x0, .L97
	.loc 1 299 0
	ldr	w0, [x23,12]
	mov	x1, x19
	bl	notify_event.constprop.6
.LVL164:
	.loc 1 302 0
	mov	x0, x19
	bl	kfree
.LVL165:
.L98:
	.loc 1 306 0
	mov	x0, x24
.LBE204:
	.loc 1 272 0
	mov	w20, 0
.LVL166:
.LBB205:
	.loc 1 306 0
	bl	kfree
.LVL167:
	b	.L102
.LVL168:
.L124:
.LBE205:
	.loc 1 319 0
	mov	x0, x19
	bl	strlen
.LVL169:
	mov	x1, x0
	.loc 1 319 0 is_stmt 0 discriminator 1
	mov	x0, x19
	bl	add_to_droplist
.LVL170:
	b	.L100
.LVL171:
.L97:
.LBB206:
	.loc 1 304 0 is_stmt 1
	adrp	x0, .LC12
.LVL172:
	add	x0, x0, :lo12:.LC12
	bl	printk
.LVL173:
	b	.L98
.LVL174:
.L126:
	.loc 1 294 0
	adrp	x0, .LC11
	.loc 1 295 0
	mov	w20, 1
.LVL175:
	.loc 1 294 0
	add	x0, x0, :lo12:.LC11
	bl	printk
.LVL176:
	.loc 1 295 0
	b	.L109
.LBE206:
	.cfi_endproc
.LFE3511:
	.size	hw_match_httppack, .-hw_match_httppack
	.align	2
	.type	net_hw_hook_localout, %function
net_hw_hook_localout:
.LFB3512:
	.loc 1 332 0
	.cfi_startproc
.LVL177:
	stp	x29, x30, [sp, -128]!
	.cfi_def_cfa_offset 128
	.cfi_offset 29, -128
	.cfi_offset 30, -120
	add	x29, sp, 0
	.cfi_def_cfa_register 29
	stp	x19, x20, [sp,16]
	.cfi_offset 19, -112
	.cfi_offset 20, -104
	mov	x19, x1
	str	x25, [sp,64]
	stp	x21, x22, [sp,32]
	stp	x23, x24, [sp,48]
	.cfi_offset 25, -64
	.cfi_offset 21, -96
	.cfi_offset 22, -88
	.cfi_offset 23, -80
	.cfi_offset 24, -72
	.loc 1 332 0
	adrp	x24, __stack_chk_guard
	ldr	x1, [x1,200]
.LVL178:
.LBB221:
.LBB222:
.LBB223:
	.loc 4 2020 0
	ldrh	w0, [x19,186]
.LVL179:
.LBE223:
.LBE222:
.LBE221:
	.loc 1 332 0
	ldr	x3, [x24,#:lo12:__stack_chk_guard]
.LBB224:
.LBB225:
.LBB226:
	.loc 4 2037 0
	ldrh	w2, [x19,188]
.LVL180:
.LBE226:
.LBE225:
.LBE224:
	.loc 1 342 0
	adds	x21, x1, x0
	.loc 1 332 0
	str	x3, [x29,120]
.LBB229:
.LBB228:
.LBB227:
	.loc 4 2037 0
	add	x22, x1, x2
.LBE227:
.LBE228:
.LBE229:
	.loc 1 342 0
	beq	.L146
	cbz	x22, .L146
	.loc 1 347 0
	ldr	x0, [x19,208]
	cbz	x0, .L131
.LBB230:
	.loc 1 350 0
	ldrb	w1, [x1,x2]
	.loc 1 354 0
	mov	w0, 1
	.loc 1 352 0
	ldr	w23, [x19,120]
	.loc 1 350 0
	ubfiz	x1, x1, 2, 4
	add	x1, x22, x1
.LVL181:
	.loc 1 351 0
	ldrb	w20, [x1,12]
	ubfx	x20, x20, 4, 4
	add	x20, x1, x20, lsl 2
.LVL182:
	.loc 1 352 0
	sub	x1, x22, x20
.LVL183:
	add	w23, w23, w1
.LVL184:
	.loc 1 353 0
	cmp	w23, 4
	bgt	.L161
.LVL185:
.L130:
.LBE230:
	.loc 1 376 0
	ldr	x2, [x29,120]
	ldr	x1, [x24,#:lo12:__stack_chk_guard]
	cmp	x2, x1
	bne	.L162
	ldp	x19, x20, [sp,16]
	.cfi_remember_state
	.cfi_restore 20
	.cfi_restore 19
.LVL186:
	ldp	x21, x22, [sp,32]
	.cfi_restore 22
	.cfi_restore 21
	ldp	x23, x24, [sp,48]
	.cfi_restore 24
	.cfi_restore 23
.LVL187:
	ldr	x25, [sp,64]
	.cfi_restore 25
	ldp	x29, x30, [sp], 128
	.cfi_restore 30
	.cfi_restore 29
	.cfi_def_cfa 31, 0
	ret
.LVL188:
.L161:
	.cfi_restore_state
.LBB247:
	.loc 1 355 0
	adrp	x25, .LANCHOR0
	mov	x0, x20
	add	x25, x25, :lo12:.LANCHOR0
	mov	w2, 5
	add	x1, x25, 56
	bl	strfindpos
.LVL189:
	cbz	x0, .L163
.L159:
.LBB231:
	.loc 1 365 0
	ldrh	w0, [x21,2]
	.loc 1 360 0 discriminator 4
	adrp	x1, .LC14
	.loc 1 361 0
	ldr	w5, [x22,16]
	.loc 1 360 0 discriminator 4
	add	x1, x1, :lo12:.LC14
.LBB232:
.LBB233:
	.file 9 "/cloud/jenkins/workspace/950_chipset_0425_component/opensource/component_code/vendor/huawei/extra/build/build_script/kirin_kernel_release/kernel/include/uapi/linux/swab.h"
	.loc 9 53 0
	lsl	w6, w0, 8
	orr	w6, w6, w0, lsr 8
.LBE233:
.LBE232:
	.loc 1 360 0
	and	w2, w5, 255
	ubfx	x3, x5, 8, 8
	ubfx	x4, x5, 16, 8
	.loc 1 360 0 is_stmt 0 discriminator 4
	add	x0, x29, 88
	.loc 1 360 0
	lsr	w5, w5, 24
	.loc 1 360 0 discriminator 4
	uxth	w6, w6
	bl	sprintf
.LVL190:
.LBB234:
.LBB235:
	.loc 1 48 0 is_stmt 1
	cbz	x19, .L141
	.loc 1 50 0
	ldr	x0, [x19,24]
.LVL191:
	.loc 1 51 0
	cbz	x0, .L141
	.loc 1 53 0 discriminator 1
	ldrb	w1, [x0,18]
	.loc 1 49 0
	mov	w21, -1
	.loc 1 53 0 discriminator 1
	uxtb	w1, w1
	cmp	w1, 6
	beq	.L133
	.loc 1 55 0
	ldr	x0, [x0,584]
.LVL192:
	cbz	x0, .L133
	.loc 1 55 0 is_stmt 0 discriminator 1
	ldr	x0, [x0,24]
.LVL193:
	.loc 1 56 0 is_stmt 1
	cbz	x0, .L133
	ldr	x0, [x0,160]
.LVL194:
	ldr	w21, [x0,28]
.LVL195:
.L133:
.LBE235:
.LBE234:
	.loc 1 367 0
	mov	x2, x20
	mov	x0, x19
.LVL196:
	mov	w1, w21
	mov	w3, w23
	add	x4, x29, 88
	bl	hw_match_httppack
.LVL197:
	mov	w20, w0
.LVL198:
	.loc 1 368 0
	cbnz	w0, .L134
.L165:
.LBB238:
.LBB239:
	.loc 1 200 0
	ldr	x0, [x19,24]
	cbnz	x0, .L164
.LBE239:
.LBE238:
.LBE231:
.LBE247:
	.loc 1 374 0
	mov	w0, w20
	b	.L130
.LVL199:
.L141:
.LBB248:
.LBB244:
.LBB241:
.LBB236:
	.loc 1 49 0
	mov	w21, -1
.LBE236:
.LBE241:
	.loc 1 367 0
	mov	x2, x20
	mov	x0, x19
.LVL200:
	mov	w1, w21
	mov	w3, w23
	add	x4, x29, 88
	bl	hw_match_httppack
.LVL201:
	mov	w20, w0
.LVL202:
	.loc 1 368 0
	cbz	w0, .L165
.L134:
.LBE244:
.LBE248:
	.loc 1 373 0
	cmn	w0, #1
	.loc 1 374 0
	mov	w0, 0
	.loc 1 373 0
	beq	.L130
	.loc 1 374 0
	mov	w0, w20
	b	.L130
.LVL203:
.L163:
.LBB249:
	.loc 1 356 0
	mov	x0, x20
	add	x1, x25, 64
	mov	w2, 5
	bl	strfindpos
.LVL204:
	.loc 1 355 0 discriminator 1
	cbnz	x0, .L159
.L131:
.LBB245:
.LBB242:
.LBB237:
	.loc 1 49 0
	mov	w20, 1
.LVL205:
.LBE237:
.LBE242:
.LBE245:
.LBE249:
	.loc 1 374 0
	mov	w0, w20
	b	.L130
.L164:
.LBB250:
.LBB246:
.LBB243:
.LBB240:
	.loc 1 201 0
	mov	w1, 104
	str	w1, [x0,468]
	.loc 1 202 0
	ldr	x1, [x19,24]
	mov	x0, x1
	ldr	x1, [x1,680]
	blr	x1
.LVL206:
	.loc 1 203 0
	ldr	x4, [x19,24]
	adrp	x0, .LC15
	mov	w1, w21
	add	x0, x0, :lo12:.LC15
	mov	x3, x19
	ldr	w2, [x4,468]
	bl	printk
.LVL207:
.LBE240:
.LBE243:
.LBE246:
.LBE250:
	.loc 1 374 0
	mov	w0, w20
	b	.L130
.LVL208:
.L162:
	.loc 1 376 0
	bl	__stack_chk_fail
.LVL209:
.L146:
	.loc 1 343 0
	adrp	x0, .LC13
	add	x0, x0, :lo12:.LC13
	bl	printk
.LVL210:
	.loc 1 344 0
	mov	w0, 1
	b	.L130
	.cfi_endproc
.LFE3512:
	.size	net_hw_hook_localout, .-net_hw_hook_localout
	.global	g_http_s
	.global	g_post_s
	.global	g_get_s
	.section	__modver,"a",%progbits
	.align	3
	.type	__modver_attr, %object
	.size	__modver_attr, 8
__modver_attr:
	.xword	___modver_attr
	.section	.exitcall.exit,"aw",%progbits
	.align	3
	.type	__exitcall_nf_exit, %object
	.size	__exitcall_nf_exit, 8
__exitcall_nf_exit:
	.xword	nf_exit
	.section	.initcall6.init,"aw",%progbits
	.align	3
	.type	__initcall_nf_init6, %object
	.size	__initcall_nf_init6, 8
__initcall_nf_init6:
	.xword	nf_init
	.data
	.align	3
.LANCHOR0 = . + 0
	.type	net_hooks, %object
	.size	net_hooks, 56
net_hooks:
	.zero	16
	.xword	net_hw_hook_localout
	.zero	16
	.byte	2
	.zero	3
	.word	3
	.word	-1
	.zero	4
	.type	g_get_s, %object
	.size	g_get_s, 4
g_get_s:
	.byte	71
	.byte	69
	.byte	84
	.byte	0
	.zero	4
	.type	g_post_s, %object
	.size	g_post_s, 5
g_post_s:
	.byte	80
	.byte	79
	.byte	83
	.byte	84
	.byte	0
	.zero	3
	.type	___modver_attr, %object
	.size	___modver_attr, 72
___modver_attr:
	.xword	.LC16
	.hword	292
	.zero	6
	.xword	__modver_version_show
	.zero	32
	.xword	.LC17
	.xword	.LC18
	.type	g_http_s, %object
	.size	g_http_s, 5
g_http_s:
	.byte	72
	.byte	84
	.byte	84
	.byte	80
	.byte	0
	.section	.rodata.str1.8,"aMS",%progbits,1
	.align	3
.LC0:
	.string	"\0016hwad:nf_init ret=%d  "
.LC1:
	.string	"\0016hwad: netlink_init failed NETLINK_HW_NF\n"
	.zero	5
.LC2:
	.string	"\0016hwad:nf_init success\n"
.LC3:
	.string	"\0016hwad:cannot notify pid 0 or nlfd 0\n"
	.zero	2
.LC4:
	.string	"\0016hwad: alloc skb fail\n"
.LC5:
	.string	"\0016hwad: notify_event fail\n"
	.zero	5
.LC6:
	.string	"\0016hwad:kernel_hw_receive cmd=%d\n"
	.zero	7
.LC7:
	.string	"\0013Invalid parameter: zero pointer reference(__skb)\n"
	.zero	4
.LC8:
	.string	"\0013wifi_tcp_nl_receive  nlh = NULL\n"
	.zero	5
.LC9:
	.string	"\0016hwad:get_download_monitor=NULL\n "
	.zero	5
.LC10:
	.string	"\0016hwad:in_irq=%d in_interrupt=%d"
	.zero	7
.LC11:
	.string	"\0016hwad:notify_event ad tempurl=NULL\n"
	.zero	3
.LC12:
	.string	"\0016hwad:report to systemmanager false\n"
	.zero	2
.LC13:
	.string	"\0016\nhwad:net_hw_hook_localout drop NULL==iph\n"
	.zero	3
.LC14:
	.string	"%d.%d.%d.%d:%d"
	.zero	1
.LC15:
	.string	"\0016hwad:reject: uid=%d sk_err=%d for skb=%p sk=%p\n"
	.zero	6
.LC16:
	.string	"version"
.LC17:
	.string	"nf_hw_hook"
	.zero	5
.LC18:
	.string	"1.0.1"
	.bss
	.align	3
.LANCHOR1 = . + 0
	.type	g_hw_nlfd, %object
	.size	g_hw_nlfd, 8
g_hw_nlfd:
	.zero	8
	.type	g_netlink_lock, %object
	.size	g_netlink_lock, 4
g_netlink_lock:
	.zero	4
	.type	g_uspa_pid, %object
	.size	g_uspa_pid, 4
g_uspa_pid:
	.zero	4
	.type	g_lastrepot, %object
	.size	g_lastrepot, 8
g_lastrepot:
	.zero	8
	.text
.Letext0:
	.file 10 "/cloud/jenkins/workspace/950_chipset_0425_component/opensource/component_code/vendor/huawei/extra/build/build_script/kirin_kernel_release/kernel/include/uapi/asm-generic/int-ll64.h"
	.file 11 "/cloud/jenkins/workspace/950_chipset_0425_component/opensource/component_code/vendor/huawei/extra/build/build_script/kirin_kernel_release/kernel/include/asm-generic/int-ll64.h"
	.file 12 "/cloud/jenkins/workspace/950_chipset_0425_component/opensource/component_code/vendor/huawei/extra/build/build_script/kirin_kernel_release/kernel/include/uapi/asm-generic/posix_types.h"
	.file 13 "/cloud/jenkins/workspace/950_chipset_0425_component/opensource/component_code/vendor/huawei/extra/build/build_script/kirin_kernel_release/kernel/include/uapi/linux/types.h"
	.file 14 "/cloud/jenkins/workspace/950_chipset_0425_component/opensource/component_code/vendor/huawei/extra/build/build_script/kirin_kernel_release/kernel/include/linux/types.h"
	.file 15 "/cloud/jenkins/workspace/950_chipset_0425_component/opensource/component_code/vendor/huawei/extra/build/build_script/kirin_kernel_release/kernel/include/linux/export.h"
	.file 16 "/cloud/jenkins/workspace/950_chipset_0425_component/opensource/component_code/vendor/huawei/extra/build/build_script/kirin_kernel_release/kernel/include/linux/init.h"
	.file 17 "/cloud/jenkins/workspace/950_chipset_0425_component/opensource/component_code/vendor/huawei/extra/build/build_script/kirin_kernel_release/kernel/include/linux/capability.h"
	.file 18 "/cloud/jenkins/workspace/950_chipset_0425_component/opensource/component_code/vendor/huawei/extra/build/build_script/kirin_kernel_release/kernel/include/asm-generic/bug.h"
	.file 19 "/cloud/jenkins/workspace/950_chipset_0425_component/opensource/component_code/vendor/huawei/extra/build/build_script/kirin_kernel_release/kernel/include/linux/thread_info.h"
	.file 20 "/cloud/jenkins/workspace/950_chipset_0425_component/opensource/component_code/vendor/huawei/extra/build/build_script/kirin_kernel_release/kernel/include/uapi/linux/time.h"
	.file 21 "/cloud/jenkins/workspace/950_chipset_0425_component/opensource/component_code/vendor/huawei/extra/build/build_script/kirin_kernel_release/kernel/arch/arm64/include/asm/compat.h"
	.file 22 "/cloud/jenkins/workspace/950_chipset_0425_component/opensource/component_code/vendor/huawei/extra/build/build_script/kirin_kernel_release/kernel/include/uapi/asm-generic/poll.h"
	.file 23 "/cloud/jenkins/workspace/950_chipset_0425_component/opensource/component_code/vendor/huawei/extra/build/build_script/kirin_kernel_release/kernel/include/linux/sched.h"
	.file 24 "/cloud/jenkins/workspace/950_chipset_0425_component/opensource/component_code/vendor/huawei/extra/build/build_script/kirin_kernel_release/kernel/arch/arm64/include/uapi/asm/ptrace.h"
	.file 25 "/cloud/jenkins/workspace/950_chipset_0425_component/opensource/component_code/vendor/huawei/extra/build/build_script/kirin_kernel_release/kernel/arch/arm64/include/asm/spinlock_types.h"
	.file 26 "/cloud/jenkins/workspace/950_chipset_0425_component/opensource/component_code/vendor/huawei/extra/build/build_script/kirin_kernel_release/kernel/include/linux/spinlock_types.h"
	.file 27 "/cloud/jenkins/workspace/950_chipset_0425_component/opensource/component_code/vendor/huawei/extra/build/build_script/kirin_kernel_release/kernel/include/linux/rwlock_types.h"
	.file 28 "/cloud/jenkins/workspace/950_chipset_0425_component/opensource/component_code/vendor/huawei/extra/build/build_script/kirin_kernel_release/kernel/arch/arm64/include/asm/fpsimd.h"
	.file 29 "/cloud/jenkins/workspace/950_chipset_0425_component/opensource/component_code/vendor/huawei/extra/build/build_script/kirin_kernel_release/kernel/arch/arm64/include/asm/processor.h"
	.file 30 "/cloud/jenkins/workspace/950_chipset_0425_component/opensource/component_code/vendor/huawei/extra/build/build_script/kirin_kernel_release/kernel/include/asm-generic/atomic-long.h"
	.file 31 "/cloud/jenkins/workspace/950_chipset_0425_component/opensource/component_code/vendor/huawei/extra/build/build_script/kirin_kernel_release/kernel/include/linux/seqlock.h"
	.file 32 "/cloud/jenkins/workspace/950_chipset_0425_component/opensource/component_code/vendor/huawei/extra/build/build_script/kirin_kernel_release/kernel/include/linux/plist.h"
	.file 33 "/cloud/jenkins/workspace/950_chipset_0425_component/opensource/component_code/vendor/huawei/extra/build/build_script/kirin_kernel_release/kernel/include/linux/cpumask.h"
	.file 34 "/cloud/jenkins/workspace/950_chipset_0425_component/opensource/component_code/vendor/huawei/extra/build/build_script/kirin_kernel_release/kernel/include/linux/wait.h"
	.file 35 "/cloud/jenkins/workspace/950_chipset_0425_component/opensource/component_code/vendor/huawei/extra/build/build_script/kirin_kernel_release/kernel/include/linux/completion.h"
	.file 36 "/cloud/jenkins/workspace/950_chipset_0425_component/opensource/component_code/vendor/huawei/extra/build/build_script/kirin_kernel_release/kernel/include/linux/ktime.h"
	.file 37 "/cloud/jenkins/workspace/950_chipset_0425_component/opensource/component_code/vendor/huawei/extra/build/build_script/kirin_kernel_release/kernel/include/linux/rbtree.h"
	.file 38 "/cloud/jenkins/workspace/950_chipset_0425_component/opensource/component_code/vendor/huawei/extra/build/build_script/kirin_kernel_release/kernel/include/linux/nodemask.h"
	.file 39 "/cloud/jenkins/workspace/950_chipset_0425_component/opensource/component_code/vendor/huawei/extra/build/build_script/kirin_kernel_release/kernel/include/linux/osq_lock.h"
	.file 40 "/cloud/jenkins/workspace/950_chipset_0425_component/opensource/component_code/vendor/huawei/extra/build/build_script/kirin_kernel_release/kernel/include/linux/rwsem.h"
	.file 41 "/cloud/jenkins/workspace/950_chipset_0425_component/opensource/component_code/vendor/huawei/extra/build/build_script/kirin_kernel_release/kernel/include/linux/mm_types.h"
	.file 42 "/cloud/jenkins/workspace/950_chipset_0425_component/opensource/component_code/vendor/huawei/extra/build/build_script/kirin_kernel_release/kernel/include/linux/lockdep.h"
	.file 43 "/cloud/jenkins/workspace/950_chipset_0425_component/opensource/component_code/vendor/huawei/extra/build/build_script/kirin_kernel_release/kernel/include/linux/uprobes.h"
	.file 44 "/cloud/jenkins/workspace/950_chipset_0425_component/opensource/component_code/vendor/huawei/extra/build/build_script/kirin_kernel_release/kernel/include/linux/timer.h"
	.file 45 "/cloud/jenkins/workspace/950_chipset_0425_component/opensource/component_code/vendor/huawei/extra/build/build_script/kirin_kernel_release/kernel/include/linux/sysctl.h"
	.file 46 "/cloud/jenkins/workspace/950_chipset_0425_component/opensource/component_code/vendor/huawei/extra/build/build_script/kirin_kernel_release/kernel/include/linux/nsproxy.h"
	.file 47 "/cloud/jenkins/workspace/950_chipset_0425_component/opensource/component_code/vendor/huawei/extra/build/build_script/kirin_kernel_release/kernel/include/linux/workqueue.h"
	.file 48 "/cloud/jenkins/workspace/950_chipset_0425_component/opensource/component_code/vendor/huawei/extra/build/build_script/kirin_kernel_release/kernel/arch/arm64/include/asm/pgtable-types.h"
	.file 49 "/cloud/jenkins/workspace/950_chipset_0425_component/opensource/component_code/vendor/huawei/extra/build/build_script/kirin_kernel_release/kernel/arch/arm64/include/asm/mmu.h"
	.file 50 "/cloud/jenkins/workspace/950_chipset_0425_component/opensource/component_code/vendor/huawei/extra/build/build_script/kirin_kernel_release/kernel/include/linux/fs.h"
	.file 51 "/cloud/jenkins/workspace/950_chipset_0425_component/opensource/component_code/vendor/huawei/extra/build/build_script/kirin_kernel_release/kernel/include/linux/mm.h"
	.file 52 "/cloud/jenkins/workspace/950_chipset_0425_component/opensource/component_code/vendor/huawei/extra/build/build_script/kirin_kernel_release/kernel/include/asm-generic/cputime_jiffies.h"
	.file 53 "/cloud/jenkins/workspace/950_chipset_0425_component/opensource/component_code/vendor/huawei/extra/build/build_script/kirin_kernel_release/kernel/include/linux/llist.h"
	.file 54 "/cloud/jenkins/workspace/950_chipset_0425_component/opensource/component_code/vendor/huawei/extra/build/build_script/kirin_kernel_release/kernel/arch/arm64/include/asm/smp.h"
	.file 55 "/cloud/jenkins/workspace/950_chipset_0425_component/opensource/component_code/vendor/huawei/extra/build/build_script/kirin_kernel_release/kernel/include/linux/uidgid.h"
	.file 56 "/cloud/jenkins/workspace/950_chipset_0425_component/opensource/component_code/vendor/huawei/extra/build/build_script/kirin_kernel_release/kernel/include/uapi/asm-generic/signal.h"
	.file 57 "/cloud/jenkins/workspace/950_chipset_0425_component/opensource/component_code/vendor/huawei/extra/build/build_script/kirin_kernel_release/kernel/include/uapi/asm-generic/signal-defs.h"
	.file 58 "/cloud/jenkins/workspace/950_chipset_0425_component/opensource/component_code/vendor/huawei/extra/build/build_script/kirin_kernel_release/kernel/include/uapi/asm-generic/siginfo.h"
	.file 59 "/cloud/jenkins/workspace/950_chipset_0425_component/opensource/component_code/vendor/huawei/extra/build/build_script/kirin_kernel_release/kernel/include/linux/signal.h"
	.file 60 "/cloud/jenkins/workspace/950_chipset_0425_component/opensource/component_code/vendor/huawei/extra/build/build_script/kirin_kernel_release/kernel/include/linux/pid.h"
	.file 61 "/cloud/jenkins/workspace/950_chipset_0425_component/opensource/component_code/vendor/huawei/extra/build/build_script/kirin_kernel_release/kernel/include/linux/mmzone.h"
	.file 62 "/cloud/jenkins/workspace/950_chipset_0425_component/opensource/component_code/vendor/huawei/extra/build/build_script/kirin_kernel_release/kernel/include/linux/mutex.h"
	.file 63 "/cloud/jenkins/workspace/950_chipset_0425_component/opensource/component_code/vendor/huawei/extra/build/build_script/kirin_kernel_release/kernel/include/linux/notifier.h"
	.file 64 "/cloud/jenkins/workspace/950_chipset_0425_component/opensource/component_code/vendor/huawei/extra/build/build_script/kirin_kernel_release/kernel/include/linux/percpu_counter.h"
	.file 65 "/cloud/jenkins/workspace/950_chipset_0425_component/opensource/component_code/vendor/huawei/extra/build/build_script/kirin_kernel_release/kernel/include/linux/seccomp.h"
	.file 66 "/cloud/jenkins/workspace/950_chipset_0425_component/opensource/component_code/vendor/huawei/extra/build/build_script/kirin_kernel_release/kernel/include/uapi/linux/resource.h"
	.file 67 "/cloud/jenkins/workspace/950_chipset_0425_component/opensource/component_code/vendor/huawei/extra/build/build_script/kirin_kernel_release/kernel/include/linux/timerqueue.h"
	.file 68 "/cloud/jenkins/workspace/950_chipset_0425_component/opensource/component_code/vendor/huawei/extra/build/build_script/kirin_kernel_release/kernel/include/linux/hrtimer.h"
	.file 69 "/cloud/jenkins/workspace/950_chipset_0425_component/opensource/component_code/vendor/huawei/extra/build/build_script/kirin_kernel_release/kernel/include/linux/task_io_accounting.h"
	.file 70 "/cloud/jenkins/workspace/950_chipset_0425_component/opensource/component_code/vendor/huawei/extra/build/build_script/kirin_kernel_release/kernel/include/linux/assoc_array.h"
	.file 71 "/cloud/jenkins/workspace/950_chipset_0425_component/opensource/component_code/vendor/huawei/extra/build/build_script/kirin_kernel_release/kernel/include/linux/key.h"
	.file 72 "/cloud/jenkins/workspace/950_chipset_0425_component/opensource/component_code/vendor/huawei/extra/build/build_script/kirin_kernel_release/kernel/include/linux/cred.h"
	.file 73 "/cloud/jenkins/workspace/950_chipset_0425_component/opensource/component_code/vendor/huawei/extra/build/build_script/kirin_kernel_release/kernel/include/linux/idr.h"
	.file 74 "/cloud/jenkins/workspace/950_chipset_0425_component/opensource/component_code/vendor/huawei/extra/build/build_script/kirin_kernel_release/kernel/include/linux/percpu-refcount.h"
	.file 75 "/cloud/jenkins/workspace/950_chipset_0425_component/opensource/component_code/vendor/huawei/extra/build/build_script/kirin_kernel_release/kernel/include/linux/rcu_sync.h"
	.file 76 "/cloud/jenkins/workspace/950_chipset_0425_component/opensource/component_code/vendor/huawei/extra/build/build_script/kirin_kernel_release/kernel/include/linux/percpu-rwsem.h"
	.file 77 "/cloud/jenkins/workspace/950_chipset_0425_component/opensource/component_code/vendor/huawei/extra/build/build_script/kirin_kernel_release/kernel/include/linux/cgroup-defs.h"
	.file 78 "/cloud/jenkins/workspace/950_chipset_0425_component/opensource/component_code/vendor/huawei/extra/build/build_script/kirin_kernel_release/kernel/include/linux/kernfs.h"
	.file 79 "/cloud/jenkins/workspace/950_chipset_0425_component/opensource/component_code/vendor/huawei/extra/build/build_script/kirin_kernel_release/kernel/include/linux/seq_file.h"
	.file 80 "/cloud/jenkins/workspace/950_chipset_0425_component/opensource/component_code/vendor/huawei/extra/build/build_script/kirin_kernel_release/kernel/include/uapi/linux/taskstats.h"
	.file 81 "/cloud/jenkins/workspace/950_chipset_0425_component/opensource/component_code/vendor/huawei/extra/build/build_script/kirin_kernel_release/kernel/include/linux/backing-dev-defs.h"
	.file 82 "/cloud/jenkins/workspace/950_chipset_0425_component/opensource/component_code/vendor/huawei/extra/build/build_script/kirin_kernel_release/kernel/include/linux/compat.h"
	.file 83 "/cloud/jenkins/workspace/950_chipset_0425_component/opensource/component_code/vendor/huawei/extra/build/build_script/kirin_kernel_release/kernel/include/linux/pipe_fs_i.h"
	.file 84 "/cloud/jenkins/workspace/950_chipset_0425_component/opensource/component_code/vendor/huawei/extra/build/build_script/kirin_kernel_release/kernel/include/linux/stat.h"
	.file 85 "/cloud/jenkins/workspace/950_chipset_0425_component/opensource/component_code/vendor/huawei/extra/build/build_script/kirin_kernel_release/kernel/include/uapi/linux/elf.h"
	.file 86 "/cloud/jenkins/workspace/950_chipset_0425_component/opensource/component_code/vendor/huawei/extra/build/build_script/kirin_kernel_release/kernel/include/linux/kobject_ns.h"
	.file 87 "/cloud/jenkins/workspace/950_chipset_0425_component/opensource/component_code/vendor/huawei/extra/build/build_script/kirin_kernel_release/kernel/include/net/sock.h"
	.file 88 "/cloud/jenkins/workspace/950_chipset_0425_component/opensource/component_code/vendor/huawei/extra/build/build_script/kirin_kernel_release/kernel/include/linux/sysfs.h"
	.file 89 "/cloud/jenkins/workspace/950_chipset_0425_component/opensource/component_code/vendor/huawei/extra/build/build_script/kirin_kernel_release/kernel/include/linux/kobject.h"
	.file 90 "/cloud/jenkins/workspace/950_chipset_0425_component/opensource/component_code/vendor/huawei/extra/build/build_script/kirin_kernel_release/kernel/include/linux/kref.h"
	.file 91 "/cloud/jenkins/workspace/950_chipset_0425_component/opensource/component_code/vendor/huawei/extra/build/build_script/kirin_kernel_release/kernel/include/linux/moduleparam.h"
	.file 92 "/cloud/jenkins/workspace/950_chipset_0425_component/opensource/component_code/vendor/huawei/extra/build/build_script/kirin_kernel_release/kernel/include/linux/module.h"
	.file 93 "/cloud/jenkins/workspace/950_chipset_0425_component/opensource/component_code/vendor/huawei/extra/build/build_script/kirin_kernel_release/kernel/include/linux/jump_label.h"
	.file 94 "/cloud/jenkins/workspace/950_chipset_0425_component/opensource/component_code/vendor/huawei/extra/build/build_script/kirin_kernel_release/kernel/include/linux/rbtree_latch.h"
	.file 95 "/cloud/jenkins/workspace/950_chipset_0425_component/opensource/component_code/vendor/huawei/extra/build/build_script/kirin_kernel_release/kernel/arch/arm64/include/asm/module.h"
	.file 96 "/cloud/jenkins/workspace/950_chipset_0425_component/opensource/component_code/vendor/huawei/extra/build/build_script/kirin_kernel_release/kernel/arch/arm64/include/asm/uaccess.h"
	.file 97 "/cloud/jenkins/workspace/950_chipset_0425_component/opensource/component_code/vendor/huawei/extra/build/build_script/kirin_kernel_release/kernel/include/linux/klist.h"
	.file 98 "/cloud/jenkins/workspace/950_chipset_0425_component/opensource/component_code/vendor/huawei/extra/build/build_script/kirin_kernel_release/kernel/include/linux/pinctrl/devinfo.h"
	.file 99 "/cloud/jenkins/workspace/950_chipset_0425_component/opensource/component_code/vendor/huawei/extra/build/build_script/kirin_kernel_release/kernel/include/linux/pm.h"
	.file 100 "/cloud/jenkins/workspace/950_chipset_0425_component/opensource/component_code/vendor/huawei/extra/build/build_script/kirin_kernel_release/kernel/include/linux/device.h"
	.file 101 "/cloud/jenkins/workspace/950_chipset_0425_component/opensource/component_code/vendor/huawei/extra/build/build_script/kirin_kernel_release/kernel/include/linux/pm_wakeup.h"
	.file 102 "/cloud/jenkins/workspace/950_chipset_0425_component/opensource/component_code/vendor/huawei/extra/build/build_script/kirin_kernel_release/kernel/arch/arm64/include/asm/device.h"
	.file 103 "/cloud/jenkins/workspace/950_chipset_0425_component/opensource/component_code/vendor/huawei/extra/build/build_script/kirin_kernel_release/kernel/include/linux/dma-mapping.h"
	.file 104 "/cloud/jenkins/workspace/950_chipset_0425_component/opensource/component_code/vendor/huawei/extra/build/build_script/kirin_kernel_release/kernel/include/linux/mod_devicetable.h"
	.file 105 "/cloud/jenkins/workspace/950_chipset_0425_component/opensource/component_code/vendor/huawei/extra/build/build_script/kirin_kernel_release/kernel/include/linux/of.h"
	.file 106 "/cloud/jenkins/workspace/950_chipset_0425_component/opensource/component_code/vendor/huawei/extra/build/build_script/kirin_kernel_release/kernel/include/linux/fwnode.h"
	.file 107 "/cloud/jenkins/workspace/950_chipset_0425_component/opensource/component_code/vendor/huawei/extra/build/build_script/kirin_kernel_release/kernel/include/uapi/linux/uio.h"
	.file 108 "/cloud/jenkins/workspace/950_chipset_0425_component/opensource/component_code/vendor/huawei/extra/build/build_script/kirin_kernel_release/kernel/include/linux/uio.h"
	.file 109 "/cloud/jenkins/workspace/950_chipset_0425_component/opensource/component_code/vendor/huawei/extra/build/build_script/kirin_kernel_release/kernel/include/linux/blk_types.h"
	.file 110 "/cloud/jenkins/workspace/950_chipset_0425_component/opensource/component_code/vendor/huawei/extra/build/build_script/kirin_kernel_release/kernel/include/linux/shrinker.h"
	.file 111 "/cloud/jenkins/workspace/950_chipset_0425_component/opensource/component_code/vendor/huawei/extra/build/build_script/kirin_kernel_release/kernel/include/linux/vmstat.h"
	.file 112 "/cloud/jenkins/workspace/950_chipset_0425_component/opensource/component_code/vendor/huawei/extra/build/build_script/kirin_kernel_release/kernel/include/linux/scatterlist.h"
	.file 113 "/cloud/jenkins/workspace/950_chipset_0425_component/opensource/component_code/vendor/huawei/extra/build/build_script/kirin_kernel_release/kernel/include/linux/dynamic_queue_limits.h"
	.file 114 "/cloud/jenkins/workspace/950_chipset_0425_component/opensource/component_code/vendor/huawei/extra/build/build_script/kirin_kernel_release/kernel/include/uapi/linux/socket.h"
	.file 115 "/cloud/jenkins/workspace/950_chipset_0425_component/opensource/component_code/vendor/huawei/extra/build/build_script/kirin_kernel_release/kernel/include/linux/socket.h"
	.file 116 "/cloud/jenkins/workspace/950_chipset_0425_component/opensource/component_code/vendor/huawei/extra/build/build_script/kirin_kernel_release/kernel/include/uapi/linux/hdlc/ioctl.h"
	.file 117 "/cloud/jenkins/workspace/950_chipset_0425_component/opensource/component_code/vendor/huawei/extra/build/build_script/kirin_kernel_release/kernel/include/uapi/linux/if.h"
	.file 118 "/cloud/jenkins/workspace/950_chipset_0425_component/opensource/component_code/vendor/huawei/extra/build/build_script/kirin_kernel_release/kernel/include/linux/list_bl.h"
	.file 119 "/cloud/jenkins/workspace/950_chipset_0425_component/opensource/component_code/vendor/huawei/extra/build/build_script/kirin_kernel_release/kernel/include/linux/lockref.h"
	.file 120 "/cloud/jenkins/workspace/950_chipset_0425_component/opensource/component_code/vendor/huawei/extra/build/build_script/kirin_kernel_release/kernel/include/linux/dcache.h"
	.file 121 "/cloud/jenkins/workspace/950_chipset_0425_component/opensource/component_code/vendor/huawei/extra/build/build_script/kirin_kernel_release/kernel/include/linux/path.h"
	.file 122 "/cloud/jenkins/workspace/950_chipset_0425_component/opensource/component_code/vendor/huawei/extra/build/build_script/kirin_kernel_release/kernel/include/linux/list_lru.h"
	.file 123 "/cloud/jenkins/workspace/950_chipset_0425_component/opensource/component_code/vendor/huawei/extra/build/build_script/kirin_kernel_release/kernel/include/linux/radix-tree.h"
	.file 124 "/cloud/jenkins/workspace/950_chipset_0425_component/opensource/component_code/vendor/huawei/extra/build/build_script/kirin_kernel_release/kernel/include/uapi/linux/fiemap.h"
	.file 125 "/cloud/jenkins/workspace/950_chipset_0425_component/opensource/component_code/vendor/huawei/extra/build/build_script/kirin_kernel_release/kernel/include/linux/migrate_mode.h"
	.file 126 "/cloud/jenkins/workspace/950_chipset_0425_component/opensource/component_code/vendor/huawei/extra/build/build_script/kirin_kernel_release/kernel/include/linux/quota.h"
	.file 127 "/cloud/jenkins/workspace/950_chipset_0425_component/opensource/component_code/vendor/huawei/extra/build/build_script/kirin_kernel_release/kernel/include/linux/projid.h"
	.file 128 "/cloud/jenkins/workspace/950_chipset_0425_component/opensource/component_code/vendor/huawei/extra/build/build_script/kirin_kernel_release/kernel/include/linux/writeback.h"
	.file 129 "/cloud/jenkins/workspace/950_chipset_0425_component/opensource/component_code/vendor/huawei/extra/build/build_script/kirin_kernel_release/kernel/include/linux/nfs_fs_i.h"
	.file 130 "/cloud/jenkins/workspace/950_chipset_0425_component/opensource/component_code/vendor/huawei/extra/build/build_script/kirin_kernel_release/kernel/include/linux/poll.h"
	.file 131 "/cloud/jenkins/workspace/950_chipset_0425_component/opensource/component_code/vendor/huawei/extra/build/build_script/kirin_kernel_release/kernel/include/linux/stddef.h"
	.file 132 "/cloud/jenkins/workspace/950_chipset_0425_component/opensource/component_code/vendor/huawei/extra/build/build_script/kirin_kernel_release/kernel/include/uapi/linux/net.h"
	.file 133 "/cloud/jenkins/workspace/950_chipset_0425_component/opensource/component_code/vendor/huawei/extra/build/build_script/kirin_kernel_release/kernel/include/linux/net.h"
	.file 134 "/cloud/jenkins/workspace/950_chipset_0425_component/opensource/component_code/vendor/huawei/extra/build/build_script/kirin_kernel_release/kernel/include/net/net_namespace.h"
	.file 135 "/cloud/jenkins/workspace/950_chipset_0425_component/opensource/component_code/vendor/huawei/extra/build/build_script/kirin_kernel_release/kernel/include/linux/dma-attrs.h"
	.file 136 "/cloud/jenkins/workspace/950_chipset_0425_component/opensource/component_code/vendor/huawei/extra/build/build_script/kirin_kernel_release/kernel/include/linux/dma-direction.h"
	.file 137 "/cloud/jenkins/workspace/950_chipset_0425_component/opensource/component_code/vendor/huawei/extra/build/build_script/kirin_kernel_release/kernel/include/linux/netdev_features.h"
	.file 138 "/cloud/jenkins/workspace/950_chipset_0425_component/opensource/component_code/vendor/huawei/extra/build/build_script/kirin_kernel_release/kernel/include/uapi/linux/in6.h"
	.file 139 "/cloud/jenkins/workspace/950_chipset_0425_component/opensource/component_code/vendor/huawei/extra/build/build_script/kirin_kernel_release/kernel/include/uapi/linux/if_ether.h"
	.file 140 "/cloud/jenkins/workspace/950_chipset_0425_component/opensource/component_code/vendor/huawei/extra/build/build_script/kirin_kernel_release/kernel/include/net/flow_dissector.h"
	.file 141 "/cloud/jenkins/workspace/950_chipset_0425_component/opensource/component_code/vendor/huawei/extra/build/build_script/kirin_kernel_release/kernel/include/net/flow.h"
	.file 142 "/cloud/jenkins/workspace/950_chipset_0425_component/opensource/component_code/vendor/huawei/extra/build/build_script/kirin_kernel_release/kernel/include/linux/netdevice.h"
	.file 143 "/cloud/jenkins/workspace/950_chipset_0425_component/opensource/component_code/vendor/huawei/extra/build/build_script/kirin_kernel_release/kernel/include/uapi/linux/ethtool.h"
	.file 144 "/cloud/jenkins/workspace/950_chipset_0425_component/opensource/component_code/vendor/huawei/extra/build/build_script/kirin_kernel_release/kernel/include/linux/ethtool.h"
	.file 145 "/cloud/jenkins/workspace/950_chipset_0425_component/opensource/component_code/vendor/huawei/extra/build/build_script/kirin_kernel_release/kernel/include/net/netns/core.h"
	.file 146 "/cloud/jenkins/workspace/950_chipset_0425_component/opensource/component_code/vendor/huawei/extra/build/build_script/kirin_kernel_release/kernel/include/linux/u64_stats_sync.h"
	.file 147 "/cloud/jenkins/workspace/950_chipset_0425_component/opensource/component_code/vendor/huawei/extra/build/build_script/kirin_kernel_release/kernel/include/net/snmp.h"
	.file 148 "/cloud/jenkins/workspace/950_chipset_0425_component/opensource/component_code/vendor/huawei/extra/build/build_script/kirin_kernel_release/kernel/include/net/netns/mib.h"
	.file 149 "/cloud/jenkins/workspace/950_chipset_0425_component/opensource/component_code/vendor/huawei/extra/build/build_script/kirin_kernel_release/kernel/include/net/netns/unix.h"
	.file 150 "/cloud/jenkins/workspace/950_chipset_0425_component/opensource/component_code/vendor/huawei/extra/build/build_script/kirin_kernel_release/kernel/include/net/netns/packet.h"
	.file 151 "/cloud/jenkins/workspace/950_chipset_0425_component/opensource/component_code/vendor/huawei/extra/build/build_script/kirin_kernel_release/kernel/include/net/inet_frag.h"
	.file 152 "/cloud/jenkins/workspace/950_chipset_0425_component/opensource/component_code/vendor/huawei/extra/build/build_script/kirin_kernel_release/kernel/include/net/netns/ipv4.h"
	.file 153 "/cloud/jenkins/workspace/950_chipset_0425_component/opensource/component_code/vendor/huawei/extra/build/build_script/kirin_kernel_release/kernel/include/net/dst_ops.h"
	.file 154 "/cloud/jenkins/workspace/950_chipset_0425_component/opensource/component_code/vendor/huawei/extra/build/build_script/kirin_kernel_release/kernel/include/net/dst.h"
	.file 155 "/cloud/jenkins/workspace/950_chipset_0425_component/opensource/component_code/vendor/huawei/extra/build/build_script/kirin_kernel_release/kernel/include/net/neighbour.h"
	.file 156 "/cloud/jenkins/workspace/950_chipset_0425_component/opensource/component_code/vendor/huawei/extra/build/build_script/kirin_kernel_release/kernel/include/net/netns/ipv6.h"
	.file 157 "/cloud/jenkins/workspace/950_chipset_0425_component/opensource/component_code/vendor/huawei/extra/build/build_script/kirin_kernel_release/kernel/include/uapi/linux/netfilter.h"
	.file 158 "/cloud/jenkins/workspace/950_chipset_0425_component/opensource/component_code/vendor/huawei/extra/build/build_script/kirin_kernel_release/kernel/include/net/netns/netfilter.h"
	.file 159 "/cloud/jenkins/workspace/950_chipset_0425_component/opensource/component_code/vendor/huawei/extra/build/build_script/kirin_kernel_release/kernel/include/net/netns/x_tables.h"
	.file 160 "/cloud/jenkins/workspace/950_chipset_0425_component/opensource/component_code/vendor/huawei/extra/build/build_script/kirin_kernel_release/kernel/include/linux/list_nulls.h"
	.file 161 "/cloud/jenkins/workspace/950_chipset_0425_component/opensource/component_code/vendor/huawei/extra/build/build_script/kirin_kernel_release/kernel/include/uapi/linux/netfilter/nf_conntrack_tcp.h"
	.file 162 "/cloud/jenkins/workspace/950_chipset_0425_component/opensource/component_code/vendor/huawei/extra/build/build_script/kirin_kernel_release/kernel/include/net/netns/conntrack.h"
	.file 163 "/cloud/jenkins/workspace/950_chipset_0425_component/opensource/component_code/vendor/huawei/extra/build/build_script/kirin_kernel_release/kernel/include/net/netns/nftables.h"
	.file 164 "/cloud/jenkins/workspace/950_chipset_0425_component/opensource/component_code/vendor/huawei/extra/build/build_script/kirin_kernel_release/kernel/include/uapi/linux/xfrm.h"
	.file 165 "/cloud/jenkins/workspace/950_chipset_0425_component/opensource/component_code/vendor/huawei/extra/build/build_script/kirin_kernel_release/kernel/include/linux/interrupt.h"
	.file 166 "/cloud/jenkins/workspace/950_chipset_0425_component/opensource/component_code/vendor/huawei/extra/build/build_script/kirin_kernel_release/kernel/include/net/flowcache.h"
	.file 167 "/cloud/jenkins/workspace/950_chipset_0425_component/opensource/component_code/vendor/huawei/extra/build/build_script/kirin_kernel_release/kernel/include/net/netns/xfrm.h"
	.file 168 "/cloud/jenkins/workspace/950_chipset_0425_component/opensource/component_code/vendor/huawei/extra/build/build_script/kirin_kernel_release/kernel/include/linux/ns_common.h"
	.file 169 "/cloud/jenkins/workspace/950_chipset_0425_component/opensource/component_code/vendor/huawei/extra/build/build_script/kirin_kernel_release/kernel/include/linux/phy.h"
	.file 170 "/cloud/jenkins/workspace/950_chipset_0425_component/opensource/component_code/vendor/huawei/extra/build/build_script/kirin_kernel_release/kernel/include/uapi/linux/netlink.h"
	.file 171 "/cloud/jenkins/workspace/950_chipset_0425_component/opensource/component_code/vendor/huawei/extra/build/build_script/kirin_kernel_release/kernel/include/uapi/linux/neighbour.h"
	.file 172 "/cloud/jenkins/workspace/950_chipset_0425_component/opensource/component_code/vendor/huawei/extra/build/build_script/kirin_kernel_release/kernel/include/uapi/linux/if_link.h"
	.file 173 "/cloud/jenkins/workspace/950_chipset_0425_component/opensource/component_code/vendor/huawei/extra/build/build_script/kirin_kernel_release/kernel/include/linux/if_link.h"
	.file 174 "/cloud/jenkins/workspace/950_chipset_0425_component/opensource/component_code/vendor/huawei/extra/build/build_script/kirin_kernel_release/kernel/include/net/sch_generic.h"
	.file 175 "/cloud/jenkins/workspace/950_chipset_0425_component/opensource/component_code/vendor/huawei/extra/build/build_script/kirin_kernel_release/kernel/include/net/rtnetlink.h"
	.file 176 "/cloud/jenkins/workspace/950_chipset_0425_component/opensource/component_code/vendor/huawei/extra/build/build_script/kirin_kernel_release/kernel/include/linux/netfilter.h"
	.file 177 "/cloud/jenkins/workspace/950_chipset_0425_component/opensource/component_code/vendor/huawei/extra/build/build_script/kirin_kernel_release/kernel/include/uapi/linux/netfilter_ipv4.h"
	.file 178 "/cloud/jenkins/workspace/950_chipset_0425_component/opensource/component_code/vendor/huawei/extra/build/build_script/kirin_kernel_release/kernel/include/uapi/linux/ip.h"
	.file 179 "/cloud/jenkins/workspace/950_chipset_0425_component/opensource/component_code/vendor/huawei/extra/build/build_script/kirin_kernel_release/kernel/include/linux/page_counter.h"
	.file 180 "/cloud/jenkins/workspace/950_chipset_0425_component/opensource/component_code/vendor/huawei/extra/build/build_script/kirin_kernel_release/kernel/include/linux/flex_proportions.h"
	.file 181 "/cloud/jenkins/workspace/950_chipset_0425_component/opensource/component_code/vendor/huawei/extra/build/build_script/kirin_kernel_release/kernel/include/linux/memcontrol.h"
	.file 182 "/cloud/jenkins/workspace/950_chipset_0425_component/opensource/component_code/vendor/huawei/extra/build/build_script/kirin_kernel_release/kernel/include/uapi/linux/pkt_sched.h"
	.file 183 "/cloud/jenkins/workspace/950_chipset_0425_component/opensource/component_code/vendor/huawei/extra/build/build_script/kirin_kernel_release/kernel/include/uapi/linux/gen_stats.h"
	.file 184 "/cloud/jenkins/workspace/950_chipset_0425_component/opensource/component_code/vendor/huawei/extra/build/build_script/kirin_kernel_release/kernel/include/uapi/linux/rtnetlink.h"
	.file 185 "/cloud/jenkins/workspace/950_chipset_0425_component/opensource/component_code/vendor/huawei/extra/build/build_script/kirin_kernel_release/kernel/include/net/gen_stats.h"
	.file 186 "/cloud/jenkins/workspace/950_chipset_0425_component/opensource/component_code/vendor/huawei/extra/build/build_script/kirin_kernel_release/kernel/include/uapi/linux/filter.h"
	.file 187 "/cloud/jenkins/workspace/950_chipset_0425_component/opensource/component_code/vendor/huawei/extra/build/build_script/kirin_kernel_release/kernel/include/uapi/linux/bpf.h"
	.file 188 "/cloud/jenkins/workspace/950_chipset_0425_component/opensource/component_code/vendor/huawei/extra/build/build_script/kirin_kernel_release/kernel/include/linux/filter.h"
	.file 189 "/cloud/jenkins/workspace/950_chipset_0425_component/opensource/component_code/vendor/huawei/extra/build/build_script/kirin_kernel_release/kernel/include/net/tcp_states.h"
	.file 190 "/cloud/jenkins/workspace/950_chipset_0425_component/opensource/component_code/vendor/huawei/extra/build/build_script/kirin_kernel_release/kernel/include/net/inet_timewait_sock.h"
	.file 191 "/cloud/jenkins/workspace/950_chipset_0425_component/opensource/component_code/vendor/huawei/extra/build/build_script/kirin_kernel_release/kernel/include/net/request_sock.h"
	.file 192 "/cloud/jenkins/workspace/950_chipset_0425_component/opensource/component_code/vendor/huawei/extra/build/build_script/kirin_kernel_release/kernel/include/net/timewait_sock.h"
	.file 193 "/cloud/jenkins/workspace/950_chipset_0425_component/opensource/component_code/vendor/huawei/extra/build/build_script/kirin_kernel_release/kernel/include/uapi/linux/tcp.h"
	.file 194 "/cloud/jenkins/workspace/950_chipset_0425_component/opensource/component_code/vendor/huawei/extra/build/build_script/kirin_kernel_release/kernel/drivers/huawei_platform/net/hw_netfilter/nf_app_dl_monitor.h"
	.file 195 "/cloud/jenkins/workspace/950_chipset_0425_component/opensource/component_code/vendor/huawei/extra/build/build_script/kirin_kernel_release/kernel/include/asm-generic/preempt.h"
	.file 196 "/cloud/jenkins/workspace/950_chipset_0425_component/opensource/component_code/vendor/huawei/extra/build/build_script/kirin_kernel_release/kernel/include/linux/tcp.h"
	.file 197 "/cloud/jenkins/workspace/950_chipset_0425_component/opensource/component_code/vendor/huawei/extra/build/build_script/kirin_kernel_release/kernel/include/linux/ip.h"
	.file 198 "/cloud/jenkins/workspace/950_chipset_0425_component/opensource/component_code/vendor/huawei/extra/build/build_script/kirin_kernel_release/kernel/arch/arm64/include/asm/cachetype.h"
	.file 199 "/cloud/jenkins/workspace/950_chipset_0425_component/opensource/component_code/vendor/huawei/extra/build/build_script/kirin_kernel_release/kernel/include/linux/printk.h"
	.file 200 "/cloud/jenkins/workspace/950_chipset_0425_component/opensource/component_code/vendor/huawei/extra/build/build_script/kirin_kernel_release/kernel/include/linux/kernel.h"
	.file 201 "/cloud/jenkins/workspace/950_chipset_0425_component/opensource/component_code/vendor/huawei/extra/build/build_script/kirin_kernel_release/kernel/arch/arm64/include/asm/hwcap.h"
	.file 202 "/cloud/jenkins/workspace/950_chipset_0425_component/opensource/component_code/vendor/huawei/extra/build/build_script/kirin_kernel_release/kernel/arch/arm64/include/asm/cpufeature.h"
	.file 203 "/cloud/jenkins/workspace/950_chipset_0425_component/opensource/component_code/vendor/huawei/extra/build/build_script/kirin_kernel_release/kernel/include/linux/jiffies.h"
	.file 204 "/cloud/jenkins/workspace/950_chipset_0425_component/opensource/component_code/vendor/huawei/extra/build/build_script/kirin_kernel_release/kernel/arch/arm64/include/asm/memory.h"
	.file 205 "/cloud/jenkins/workspace/950_chipset_0425_component/opensource/component_code/vendor/huawei/extra/build/build_script/kirin_kernel_release/kernel/include/linux/highuid.h"
	.file 206 "/cloud/jenkins/workspace/950_chipset_0425_component/opensource/component_code/vendor/huawei/extra/build/build_script/kirin_kernel_release/kernel/include/asm-generic/percpu.h"
	.file 207 "/cloud/jenkins/workspace/950_chipset_0425_component/opensource/component_code/vendor/huawei/extra/build/build_script/kirin_kernel_release/kernel/include/asm-generic/pgtable.h"
	.file 208 "/cloud/jenkins/workspace/950_chipset_0425_component/opensource/component_code/vendor/huawei/extra/build/build_script/kirin_kernel_release/kernel/include/linux/debug_locks.h"
	.file 209 "/cloud/jenkins/workspace/950_chipset_0425_component/opensource/component_code/vendor/huawei/extra/build/build_script/kirin_kernel_release/kernel/include/linux/slab.h"
	.file 210 "/cloud/jenkins/workspace/950_chipset_0425_component/opensource/component_code/vendor/huawei/extra/build/build_script/kirin_kernel_release/kernel/arch/arm64/include/../../arm/include/asm/xen/hypervisor.h"
	.file 211 "/cloud/jenkins/workspace/950_chipset_0425_component/opensource/component_code/vendor/huawei/extra/build/build_script/kirin_kernel_release/kernel/arch/arm64/include/asm/dma-mapping.h"
	.file 212 "/cloud/jenkins/workspace/950_chipset_0425_component/opensource/component_code/vendor/huawei/extra/build/build_script/kirin_kernel_release/kernel/arch/arm64/include/asm/irq.h"
	.file 213 "/cloud/jenkins/workspace/950_chipset_0425_component/opensource/component_code/vendor/huawei/extra/build/build_script/kirin_kernel_release/kernel/arch/arm64/include/asm/hardirq.h"
	.file 214 "/cloud/jenkins/workspace/950_chipset_0425_component/opensource/component_code/vendor/huawei/extra/build/build_script/kirin_kernel_release/kernel/include/linux/cgroup.h"
	.file 215 "/cloud/jenkins/workspace/950_chipset_0425_component/opensource/component_code/vendor/huawei/extra/build/build_script/kirin_kernel_release/kernel/include/net/inet_connection_sock.h"
	.file 216 "/cloud/jenkins/workspace/950_chipset_0425_component/opensource/component_code/vendor/huawei/extra/build/build_script/kirin_kernel_release/kernel/include/linux/ctype.h"
	.file 217 "/cloud/jenkins/workspace/950_chipset_0425_component/opensource/component_code/vendor/huawei/extra/build/build_script/kirin_kernel_release/kernel/drivers/huawei_platform/net/hw_netfilter/nf_ad_filter.h"
	.file 218 "/cloud/jenkins/workspace/950_chipset_0425_component/opensource/component_code/vendor/huawei/extra/build/build_script/kirin_kernel_release/kernel/include/linux/spinlock_api_smp.h"
	.file 219 "/cloud/jenkins/workspace/950_chipset_0425_component/opensource/component_code/vendor/huawei/extra/build/build_script/kirin_kernel_release/kernel/arch/arm64/include/asm/string.h"
	.file 220 "/cloud/jenkins/workspace/950_chipset_0425_component/opensource/component_code/vendor/huawei/extra/build/build_script/kirin_kernel_release/kernel/drivers/huawei_platform/net/hw_netfilter/nf_hw_common.h"
	.section	.note.GNU-stack,"",%progbits
